Archive member included to satisfy reference by file (symbol)

/home/j0sh1x/Lg_G7_ThinQ_Edk2/edk2_LG_G7_THINQ/workspace/Build/LgG7ThinQPkg/DEBUG_GCC5/AARCH64/ArmPkg/Library/CompilerIntrinsicsLib/CompilerIntrinsicsLib/OUTPUT/CompilerIntrinsicsLib.lib(memcpy.obj)
                              /home/j0sh1x/Lg_G7_ThinQ_Edk2/edk2/ArmPkg/Library/GccLto/liblto-aarch64.a (memcpy)
/home/j0sh1x/Lg_G7_ThinQ_Edk2/edk2_LG_G7_THINQ/workspace/Build/LgG7ThinQPkg/DEBUG_GCC5/AARCH64/ArmPkg/Library/CompilerIntrinsicsLib/CompilerIntrinsicsLib/OUTPUT/CompilerIntrinsicsLib.lib(memset.obj)
                              /home/j0sh1x/Lg_G7_ThinQ_Edk2/edk2/ArmPkg/Library/GccLto/liblto-aarch64.a (memset)
/home/j0sh1x/Lg_G7_ThinQ_Edk2/edk2_LG_G7_THINQ/workspace/Build/LgG7ThinQPkg/DEBUG_GCC5/AARCH64/MdePkg/Library/UefiApplicationEntryPoint/UefiApplicationEntryPoint/OUTPUT/UefiApplicationEntryPoint.lib(ApplicationEntryPoint.obj)
                              (_ModuleEntryPoint)
/home/j0sh1x/Lg_G7_ThinQ_Edk2/edk2_LG_G7_THINQ/workspace/Build/LgG7ThinQPkg/DEBUG_GCC5/AARCH64/MdePkg/Library/BaseStackCheckLib/BaseStackCheckLib/OUTPUT/BaseStackCheckLib.lib(BaseStackCheckGcc.obj)
                              /home/j0sh1x/Lg_G7_ThinQ_Edk2/edk2/ArmPkg/Library/GccLto/liblto-aarch64.a (__stack_chk_fail)
/home/j0sh1x/Lg_G7_ThinQ_Edk2/edk2_LG_G7_THINQ/workspace/Build/LgG7ThinQPkg/DEBUG_GCC5/AARCH64/MdeModulePkg/Application/UiApp/UiApp/OUTPUT/UiApp.lib(AutoGen.obj)
                              ApplicationEntryPoint.obj (symbol from plugin) (ProcessLibraryConstructorList)
/home/j0sh1x/Lg_G7_ThinQ_Edk2/edk2_LG_G7_THINQ/workspace/Build/LgG7ThinQPkg/DEBUG_GCC5/AARCH64/MdeModulePkg/Application/UiApp/UiApp/OUTPUT/UiApp.lib(FrontPage.obj)
                              AutoGen.obj (symbol from plugin) (InitializeUserInterface)
/home/j0sh1x/Lg_G7_ThinQ_Edk2/edk2_LG_G7_THINQ/workspace/Build/LgG7ThinQPkg/DEBUG_GCC5/AARCH64/MdeModulePkg/Application/UiApp/UiApp/OUTPUT/UiApp.lib(String.obj)
                              FrontPage.obj (symbol from plugin) (InitializeStringSupport)
/home/j0sh1x/Lg_G7_ThinQ_Edk2/edk2_LG_G7_THINQ/workspace/Build/LgG7ThinQPkg/DEBUG_GCC5/AARCH64/MdeModulePkg/Application/UiApp/UiApp/OUTPUT/UiApp.lib(FrontPageCustomizedUi.obj)
                              FrontPage.obj (symbol from plugin) (UiCustomizeFrontPage)
/home/j0sh1x/Lg_G7_ThinQ_Edk2/edk2_LG_G7_THINQ/workspace/Build/LgG7ThinQPkg/DEBUG_GCC5/AARCH64/MdeModulePkg/Application/UiApp/UiApp/OUTPUT/UiApp.lib(FrontPageCustomizedUiSupport.obj)
                              FrontPageCustomizedUi.obj (symbol from plugin) (UiSupportLibCallbackHandler)
/home/j0sh1x/Lg_G7_ThinQ_Edk2/edk2_LG_G7_THINQ/workspace/Build/LgG7ThinQPkg/DEBUG_GCC5/AARCH64/MdeModulePkg/Application/UiApp/UiApp/OUTPUT/UiApp.lib(FrontPageVfr.obj)
                              FrontPage.obj (symbol from plugin) (FrontPageVfrBin)
/home/j0sh1x/Lg_G7_ThinQ_Edk2/edk2_LG_G7_THINQ/workspace/Build/LgG7ThinQPkg/DEBUG_GCC5/AARCH64/MdePkg/Library/DxePcdLib/DxePcdLib/OUTPUT/DxePcdLib.lib(DxePcdLib.obj)
                              FrontPageCustomizedUi.obj (symbol from plugin) (LibPcdGetBool)
/home/j0sh1x/Lg_G7_ThinQ_Edk2/edk2_LG_G7_THINQ/workspace/Build/LgG7ThinQPkg/DEBUG_GCC5/AARCH64/MdePkg/Library/BaseMemoryLibOptDxe/BaseMemoryLibOptDxe/OUTPUT/BaseMemoryLibOptDxe.lib(MemLibGuid.obj)
                              FrontPageCustomizedUiSupport.obj (symbol from plugin) (CompareGuid)
/home/j0sh1x/Lg_G7_ThinQ_Edk2/edk2_LG_G7_THINQ/workspace/Build/LgG7ThinQPkg/DEBUG_GCC5/AARCH64/MdePkg/Library/BaseMemoryLibOptDxe/BaseMemoryLibOptDxe/OUTPUT/BaseMemoryLibOptDxe.lib(CopyMemWrapper.obj)
                              FrontPageCustomizedUiSupport.obj (symbol from plugin) (CopyMem)
/home/j0sh1x/Lg_G7_ThinQ_Edk2/edk2_LG_G7_THINQ/workspace/Build/LgG7ThinQPkg/DEBUG_GCC5/AARCH64/MdePkg/Library/BaseMemoryLibOptDxe/BaseMemoryLibOptDxe/OUTPUT/BaseMemoryLibOptDxe.lib(CopyMem.obj)
                              MemLibGuid.obj (symbol from plugin) (InternalMemCopyMem)
/home/j0sh1x/Lg_G7_ThinQ_Edk2/edk2_LG_G7_THINQ/workspace/Build/LgG7ThinQPkg/DEBUG_GCC5/AARCH64/MdePkg/Library/BaseMemoryLibOptDxe/BaseMemoryLibOptDxe/OUTPUT/BaseMemoryLibOptDxe.lib(CompareGuid.obj)
                              MemLibGuid.obj (symbol from plugin) (InternalMemCompareGuid)
/home/j0sh1x/Lg_G7_ThinQ_Edk2/edk2_LG_G7_THINQ/workspace/Build/LgG7ThinQPkg/DEBUG_GCC5/AARCH64/MdePkg/Library/BaseLib/BaseLib/OUTPUT/BaseLib.lib(RShiftU64.obj)
                              FrontPage.obj (symbol from plugin) (RShiftU64)
/home/j0sh1x/Lg_G7_ThinQ_Edk2/edk2_LG_G7_THINQ/workspace/Build/LgG7ThinQPkg/DEBUG_GCC5/AARCH64/MdePkg/Library/BaseLib/BaseLib/OUTPUT/BaseLib.lib(CpuDeadLoop.obj)
                              BaseStackCheckGcc.obj (symbol from plugin) (CpuDeadLoop)
/home/j0sh1x/Lg_G7_ThinQ_Edk2/edk2_LG_G7_THINQ/workspace/Build/LgG7ThinQPkg/DEBUG_GCC5/AARCH64/MdePkg/Library/BaseLib/BaseLib/OUTPUT/BaseLib.lib(SafeString.obj)
                              FrontPage.obj (symbol from plugin) (StrnLenS)
/home/j0sh1x/Lg_G7_ThinQ_Edk2/edk2_LG_G7_THINQ/workspace/Build/LgG7ThinQPkg/DEBUG_GCC5/AARCH64/MdePkg/Library/BaseLib/BaseLib/OUTPUT/BaseLib.lib(String.obj)
                              SafeString.obj (symbol from plugin) (InternalIsDecimalDigitCharacter)
/home/j0sh1x/Lg_G7_ThinQ_Edk2/edk2_LG_G7_THINQ/workspace/Build/LgG7ThinQPkg/DEBUG_GCC5/AARCH64/MdePkg/Library/BaseLib/BaseLib/OUTPUT/BaseLib.lib(Math64.obj)
                              RShiftU64.obj (symbol from plugin) (InternalMathRShiftU64)
/home/j0sh1x/Lg_G7_ThinQ_Edk2/edk2_LG_G7_THINQ/workspace/Build/LgG7ThinQPkg/DEBUG_GCC5/AARCH64/MdePkg/Library/BaseLib/BaseLib/OUTPUT/BaseLib.lib(CpuBreakpoint.obj)
                              BaseStackCheckGcc.obj (symbol from plugin) (CpuBreakpoint)
/home/j0sh1x/Lg_G7_ThinQ_Edk2/edk2_LG_G7_THINQ/workspace/Build/LgG7ThinQPkg/DEBUG_GCC5/AARCH64/MdePkg/Library/BaseLib/BaseLib/OUTPUT/BaseLib.lib(SwapBytes32.obj)
                              SafeString.obj (symbol from plugin) (SwapBytes32)
/home/j0sh1x/Lg_G7_ThinQ_Edk2/edk2_LG_G7_THINQ/workspace/Build/LgG7ThinQPkg/DEBUG_GCC5/AARCH64/MdePkg/Library/BaseLib/BaseLib/OUTPUT/BaseLib.lib(SwapBytes16.obj)
                              SafeString.obj (symbol from plugin) (SwapBytes16)
/home/j0sh1x/Lg_G7_ThinQ_Edk2/edk2_LG_G7_THINQ/workspace/Build/LgG7ThinQPkg/DEBUG_GCC5/AARCH64/MdePkg/Library/BaseLib/BaseLib/OUTPUT/BaseLib.lib(MultU64x32.obj)
                              SafeString.obj (symbol from plugin) (MultU64x32)
/home/j0sh1x/Lg_G7_ThinQ_Edk2/edk2_LG_G7_THINQ/workspace/Build/LgG7ThinQPkg/DEBUG_GCC5/AARCH64/MdePkg/Library/BaseLib/BaseLib/OUTPUT/BaseLib.lib(LShiftU64.obj)
                              SafeString.obj (symbol from plugin) (LShiftU64)
/home/j0sh1x/Lg_G7_ThinQ_Edk2/edk2_LG_G7_THINQ/workspace/Build/LgG7ThinQPkg/DEBUG_GCC5/AARCH64/MdePkg/Library/BaseLib/BaseLib/OUTPUT/BaseLib.lib(DivU64x32.obj)
                              SafeString.obj (symbol from plugin) (DivU64x32)
/home/j0sh1x/Lg_G7_ThinQ_Edk2/edk2_LG_G7_THINQ/workspace/Build/LgG7ThinQPkg/DEBUG_GCC5/AARCH64/MdePkg/Library/BasePrintLib/BasePrintLib/OUTPUT/BasePrintLib.lib(PrintLib.obj)
                              FrontPage.obj (symbol from plugin) (UnicodeValueToStringS)
/home/j0sh1x/Lg_G7_ThinQ_Edk2/edk2_LG_G7_THINQ/workspace/Build/LgG7ThinQPkg/DEBUG_GCC5/AARCH64/MdePkg/Library/BasePrintLib/BasePrintLib/OUTPUT/BasePrintLib.lib(PrintLibInternal.obj)
                              PrintLib.obj (symbol from plugin) (BasePrintLibConvertValueToString)
/home/j0sh1x/Lg_G7_ThinQ_Edk2/edk2_LG_G7_THINQ/workspace/Build/LgG7ThinQPkg/DEBUG_GCC5/AARCH64/MdePkg/Library/BaseDebugLibSerialPort/BaseDebugLibSerialPort/OUTPUT/BaseDebugLibSerialPort.lib(DebugLib.obj)
                              AutoGen.obj (symbol from plugin) (BaseDebugLibSerialPortConstructor)
/home/j0sh1x/Lg_G7_ThinQ_Edk2/edk2_LG_G7_THINQ/workspace/Build/LgG7ThinQPkg/DEBUG_GCC5/AARCH64/MdePkg/Library/UefiMemoryAllocationLib/UefiMemoryAllocationLib/OUTPUT/UefiMemoryAllocationLib.lib(MemoryAllocationLib.obj)
                              FrontPage.obj (symbol from plugin) (AllocatePool)
/home/j0sh1x/Lg_G7_ThinQ_Edk2/edk2_LG_G7_THINQ/workspace/Build/LgG7ThinQPkg/DEBUG_GCC5/AARCH64/MdePkg/Library/UefiBootServicesTableLib/UefiBootServicesTableLib/OUTPUT/UefiBootServicesTableLib.lib(UefiBootServicesTableLib.obj)
                              AutoGen.obj (symbol from plugin) (UefiBootServicesTableLibConstructor)
/home/j0sh1x/Lg_G7_ThinQ_Edk2/edk2_LG_G7_THINQ/workspace/Build/LgG7ThinQPkg/DEBUG_GCC5/AARCH64/MdePkg/Library/UefiRuntimeServicesTableLib/UefiRuntimeServicesTableLib/OUTPUT/UefiRuntimeServicesTableLib.lib(UefiRuntimeServicesTableLib.obj)
                              AutoGen.obj (symbol from plugin) (UefiRuntimeServicesTableLibConstructor)
/home/j0sh1x/Lg_G7_ThinQ_Edk2/edk2_LG_G7_THINQ/workspace/Build/LgG7ThinQPkg/DEBUG_GCC5/AARCH64/MdePkg/Library/UefiDevicePathLib/UefiDevicePathLib/OUTPUT/UefiDevicePathLib.lib(DevicePathUtilities.obj)
                              FrontPageCustomizedUiSupport.obj (symbol from plugin) (DevicePathFromHandle)
/home/j0sh1x/Lg_G7_ThinQ_Edk2/edk2_LG_G7_THINQ/workspace/Build/LgG7ThinQPkg/DEBUG_GCC5/AARCH64/MdePkg/Library/UefiDevicePathLib/UefiDevicePathLib/OUTPUT/UefiDevicePathLib.lib(UefiDevicePathLib.obj)
                              DevicePathUtilities.obj (symbol from plugin) (GetDevicePathSize)
/home/j0sh1x/Lg_G7_ThinQ_Edk2/edk2_LG_G7_THINQ/workspace/Build/LgG7ThinQPkg/DEBUG_GCC5/AARCH64/MdePkg/Library/UefiDevicePathLib/UefiDevicePathLib/OUTPUT/UefiDevicePathLib.lib(DevicePathToText.obj)
                              UefiDevicePathLib.obj (symbol from plugin) (UefiDevicePathLibConvertDeviceNodeToText)
/home/j0sh1x/Lg_G7_ThinQ_Edk2/edk2_LG_G7_THINQ/workspace/Build/LgG7ThinQPkg/DEBUG_GCC5/AARCH64/MdePkg/Library/UefiDevicePathLib/UefiDevicePathLib/OUTPUT/UefiDevicePathLib.lib(DevicePathFromText.obj)
                              UefiDevicePathLib.obj (symbol from plugin) (UefiDevicePathLibConvertTextToDeviceNode)
/home/j0sh1x/Lg_G7_ThinQ_Edk2/edk2_LG_G7_THINQ/workspace/Build/LgG7ThinQPkg/DEBUG_GCC5/AARCH64/MdePkg/Library/UefiLib/UefiLib/OUTPUT/UefiLib.lib(Console.obj)
                              FrontPage.obj (symbol from plugin) (CreatePopUp)
/home/j0sh1x/Lg_G7_ThinQ_Edk2/edk2_LG_G7_THINQ/workspace/Build/LgG7ThinQPkg/DEBUG_GCC5/AARCH64/MdePkg/Library/UefiLib/UefiLib/OUTPUT/UefiLib.lib(UefiLib.obj)
                              AutoGen.obj (symbol from plugin) (UefiLibConstructor)
/home/j0sh1x/Lg_G7_ThinQ_Edk2/edk2_LG_G7_THINQ/workspace/Build/LgG7ThinQPkg/DEBUG_GCC5/AARCH64/MdePkg/Library/DxeHobLib/DxeHobLib/OUTPUT/DxeHobLib.lib(HobLib.obj)
                              AutoGen.obj (symbol from plugin) (HobLibConstructor)
/home/j0sh1x/Lg_G7_ThinQ_Edk2/edk2_LG_G7_THINQ/workspace/Build/LgG7ThinQPkg/DEBUG_GCC5/AARCH64/MdeModulePkg/Library/UefiHiiServicesLib/UefiHiiServicesLib/OUTPUT/UefiHiiServicesLib.lib(UefiHiiServicesLib.obj)
                              AutoGen.obj (symbol from plugin) (UefiHiiServicesLibConstructor)
/home/j0sh1x/Lg_G7_ThinQ_Edk2/edk2_LG_G7_THINQ/workspace/Build/LgG7ThinQPkg/DEBUG_GCC5/AARCH64/MdePkg/Library/DxeServicesTableLib/DxeServicesTableLib/OUTPUT/DxeServicesTableLib.lib(DxeServicesTableLib.obj)
                              AutoGen.obj (symbol from plugin) (DxeServicesTableLibConstructor)
/home/j0sh1x/Lg_G7_ThinQ_Edk2/edk2_LG_G7_THINQ/workspace/Build/LgG7ThinQPkg/DEBUG_GCC5/AARCH64/MdeModulePkg/Library/UefiHiiLib/UefiHiiLib/OUTPUT/UefiHiiLib.lib(HiiLib.obj)
                              FrontPage.obj (symbol from plugin) (HiiAddPackages)
/home/j0sh1x/Lg_G7_ThinQ_Edk2/edk2_LG_G7_THINQ/workspace/Build/LgG7ThinQPkg/DEBUG_GCC5/AARCH64/MdeModulePkg/Library/UefiHiiLib/UefiHiiLib/OUTPUT/UefiHiiLib.lib(HiiString.obj)
                              FrontPage.obj (symbol from plugin) (HiiSetString)
/home/j0sh1x/Lg_G7_ThinQ_Edk2/edk2_LG_G7_THINQ/workspace/Build/LgG7ThinQPkg/DEBUG_GCC5/AARCH64/MdeModulePkg/Library/UefiHiiLib/UefiHiiLib/OUTPUT/UefiHiiLib.lib(HiiLanguage.obj)
                              HiiString.obj (symbol from plugin) (HiiGetSupportedLanguages)
/home/j0sh1x/Lg_G7_ThinQ_Edk2/edk2_LG_G7_THINQ/workspace/Build/LgG7ThinQPkg/DEBUG_GCC5/AARCH64/MdeModulePkg/Library/DxeReportStatusCodeLib/DxeReportStatusCodeLib/OUTPUT/DxeReportStatusCodeLib.lib(ReportStatusCodeLib.obj)
                              FrontPage.obj (symbol from plugin) (ReportProgressCodeEnabled)
/home/j0sh1x/Lg_G7_ThinQ_Edk2/edk2_LG_G7_THINQ/workspace/Build/LgG7ThinQPkg/DEBUG_GCC5/AARCH64/MdeModulePkg/Library/UefiBootManagerLib/UefiBootManagerLib/OUTPUT/UefiBootManagerLib.lib(BmConnect.obj)
                              FrontPage.obj (symbol from plugin) (EfiBootManagerConnectAll)
/home/j0sh1x/Lg_G7_ThinQ_Edk2/edk2_LG_G7_THINQ/workspace/Build/LgG7ThinQPkg/DEBUG_GCC5/AARCH64/MdeModulePkg/Library/UefiBootManagerLib/UefiBootManagerLib/OUTPUT/UefiBootManagerLib.lib(BmConsole.obj)
                              BmConnect.obj (symbol from plugin) (EfiBootManagerConnectAllDefaultConsoles)
/home/j0sh1x/Lg_G7_ThinQ_Edk2/edk2_LG_G7_THINQ/workspace/Build/LgG7ThinQPkg/DEBUG_GCC5/AARCH64/MdeModulePkg/Library/UefiBootManagerLib/UefiBootManagerLib/OUTPUT/UefiBootManagerLib.lib(BmBoot.obj)
                              FrontPage.obj (symbol from plugin) (EfiBootManagerRefreshAllBootOption)
/home/j0sh1x/Lg_G7_ThinQ_Edk2/edk2_LG_G7_THINQ/workspace/Build/LgG7ThinQPkg/DEBUG_GCC5/AARCH64/MdeModulePkg/Library/UefiBootManagerLib/UefiBootManagerLib/OUTPUT/UefiBootManagerLib.lib(BmBootDescription.obj)
                              BmBoot.obj (symbol from plugin) (BmGetBootDescription)
/home/j0sh1x/Lg_G7_ThinQ_Edk2/edk2_LG_G7_THINQ/workspace/Build/LgG7ThinQPkg/DEBUG_GCC5/AARCH64/MdeModulePkg/Library/UefiBootManagerLib/UefiBootManagerLib/OUTPUT/UefiBootManagerLib.lib(BmLoadOption.obj)
                              BmBoot.obj (symbol from plugin) (mBmLoadOptionName)
/home/j0sh1x/Lg_G7_ThinQ_Edk2/edk2_LG_G7_THINQ/workspace/Build/LgG7ThinQPkg/DEBUG_GCC5/AARCH64/MdeModulePkg/Library/UefiBootManagerLib/UefiBootManagerLib/OUTPUT/UefiBootManagerLib.lib(BmHotkey.obj)
                              BmBoot.obj (symbol from plugin) (BmStopHotkeyService)
/home/j0sh1x/Lg_G7_ThinQ_Edk2/edk2_LG_G7_THINQ/workspace/Build/LgG7ThinQPkg/DEBUG_GCC5/AARCH64/MdeModulePkg/Library/UefiBootManagerLib/UefiBootManagerLib/OUTPUT/UefiBootManagerLib.lib(BmDriverHealth.obj)
                              BmBoot.obj (symbol from plugin) (BmRepairAllControllers)
/home/j0sh1x/Lg_G7_ThinQ_Edk2/edk2_LG_G7_THINQ/workspace/Build/LgG7ThinQPkg/DEBUG_GCC5/AARCH64/MdeModulePkg/Library/UefiBootManagerLib/UefiBootManagerLib/OUTPUT/UefiBootManagerLib.lib(BmMisc.obj)
                              BmConsole.obj (symbol from plugin) (BmDelPartMatchInstance)
/home/j0sh1x/Lg_G7_ThinQ_Edk2/edk2_LG_G7_THINQ/workspace/Build/LgG7ThinQPkg/DEBUG_GCC5/AARCH64/MdeModulePkg/Library/FileExplorerLib/FileExplorerLib/OUTPUT/FileExplorerLib.lib(FileExplorer.obj)
                              AutoGen.obj (symbol from plugin) (FileExplorerLibConstructor)
/home/j0sh1x/Lg_G7_ThinQ_Edk2/edk2_LG_G7_THINQ/workspace/Build/LgG7ThinQPkg/DEBUG_GCC5/AARCH64/MdeModulePkg/Library/FileExplorerLib/FileExplorerLib/OUTPUT/FileExplorerLib.lib(AutoGen.obj)
                              FileExplorer.obj (symbol from plugin) (FileExplorerLibStrings)
/home/j0sh1x/Lg_G7_ThinQ_Edk2/edk2_LG_G7_THINQ/workspace/Build/LgG7ThinQPkg/DEBUG_GCC5/AARCH64/MdeModulePkg/Library/FileExplorerLib/FileExplorerLib/OUTPUT/FileExplorerLib.lib(FileExplorerVfr.obj)
                              FileExplorer.obj (symbol from plugin) (FileExplorerVfrBin)
/home/j0sh1x/Lg_G7_ThinQ_Edk2/edk2_LG_G7_THINQ/workspace/Build/LgG7ThinQPkg/DEBUG_GCC5/AARCH64/MdeModulePkg/Library/DeviceManagerUiLib/DeviceManagerUiLib/OUTPUT/DeviceManagerUiLib.lib(DeviceManager.obj)
                              AutoGen.obj (symbol from plugin) (DeviceManagerUiLibConstructor)
/home/j0sh1x/Lg_G7_ThinQ_Edk2/edk2_LG_G7_THINQ/workspace/Build/LgG7ThinQPkg/DEBUG_GCC5/AARCH64/MdeModulePkg/Library/DeviceManagerUiLib/DeviceManagerUiLib/OUTPUT/DeviceManagerUiLib.lib(AutoGen.obj)
                              DeviceManager.obj (symbol from plugin) (DeviceManagerUiLibStrings)
/home/j0sh1x/Lg_G7_ThinQ_Edk2/edk2_LG_G7_THINQ/workspace/Build/LgG7ThinQPkg/DEBUG_GCC5/AARCH64/MdeModulePkg/Library/DeviceManagerUiLib/DeviceManagerUiLib/OUTPUT/DeviceManagerUiLib.lib(DeviceManagerVfr.obj)
                              DeviceManager.obj (symbol from plugin) (DeviceManagerVfrBin)
/home/j0sh1x/Lg_G7_ThinQ_Edk2/edk2_LG_G7_THINQ/workspace/Build/LgG7ThinQPkg/DEBUG_GCC5/AARCH64/MdeModulePkg/Library/BootManagerUiLib/BootManagerUiLib/OUTPUT/BootManagerUiLib.lib(BootManager.obj)
                              AutoGen.obj (symbol from plugin) (BootManagerUiLibConstructor)
/home/j0sh1x/Lg_G7_ThinQ_Edk2/edk2_LG_G7_THINQ/workspace/Build/LgG7ThinQPkg/DEBUG_GCC5/AARCH64/MdeModulePkg/Library/BootManagerUiLib/BootManagerUiLib/OUTPUT/BootManagerUiLib.lib(AutoGen.obj)
                              BootManager.obj (symbol from plugin) (BootManagerUiLibStrings)
/home/j0sh1x/Lg_G7_ThinQ_Edk2/edk2_LG_G7_THINQ/workspace/Build/LgG7ThinQPkg/DEBUG_GCC5/AARCH64/MdeModulePkg/Library/BootManagerUiLib/BootManagerUiLib/OUTPUT/BootManagerUiLib.lib(BootManagerVfr.obj)
                              BootManager.obj (symbol from plugin) (BootManagerVfrBin)
/home/j0sh1x/Lg_G7_ThinQ_Edk2/edk2_LG_G7_THINQ/workspace/Build/LgG7ThinQPkg/DEBUG_GCC5/AARCH64/MdeModulePkg/Library/BootMaintenanceManagerUiLib/BootMaintenanceManagerUiLib/OUTPUT/BootMaintenanceManagerUiLib.lib(BootMaintenance.obj)
                              AutoGen.obj (symbol from plugin) (BootMaintenanceManagerUiLibConstructor)
/home/j0sh1x/Lg_G7_ThinQ_Edk2/edk2_LG_G7_THINQ/workspace/Build/LgG7ThinQPkg/DEBUG_GCC5/AARCH64/MdeModulePkg/Library/BootMaintenanceManagerUiLib/BootMaintenanceManagerUiLib/OUTPUT/BootMaintenanceManagerUiLib.lib(BootOption.obj)
                              BootMaintenance.obj (symbol from plugin) (BOpt_GetMenuEntry)
/home/j0sh1x/Lg_G7_ThinQ_Edk2/edk2_LG_G7_THINQ/workspace/Build/LgG7ThinQPkg/DEBUG_GCC5/AARCH64/MdeModulePkg/Library/BootMaintenanceManagerUiLib/BootMaintenanceManagerUiLib/OUTPUT/BootMaintenanceManagerUiLib.lib(ConsoleOption.obj)
                              BootMaintenance.obj (symbol from plugin) (ChangeTerminalDevicePath)
/home/j0sh1x/Lg_G7_ThinQ_Edk2/edk2_LG_G7_THINQ/workspace/Build/LgG7ThinQPkg/DEBUG_GCC5/AARCH64/MdeModulePkg/Library/BootMaintenanceManagerUiLib/BootMaintenanceManagerUiLib/OUTPUT/BootMaintenanceManagerUiLib.lib(Data.obj)
                              ConsoleOption.obj (symbol from plugin) (TerminalTypeGuid)
/home/j0sh1x/Lg_G7_ThinQ_Edk2/edk2_LG_G7_THINQ/workspace/Build/LgG7ThinQPkg/DEBUG_GCC5/AARCH64/MdeModulePkg/Library/BootMaintenanceManagerUiLib/BootMaintenanceManagerUiLib/OUTPUT/BootMaintenanceManagerUiLib.lib(Variable.obj)
                              BootMaintenance.obj (symbol from plugin) (Var_DelBootOption)
/home/j0sh1x/Lg_G7_ThinQ_Edk2/edk2_LG_G7_THINQ/workspace/Build/LgG7ThinQPkg/DEBUG_GCC5/AARCH64/MdeModulePkg/Library/BootMaintenanceManagerUiLib/BootMaintenanceManagerUiLib/OUTPUT/BootMaintenanceManagerUiLib.lib(UpdatePage.obj)
                              BootMaintenance.obj (symbol from plugin) (CreateUpdateData)
/home/j0sh1x/Lg_G7_ThinQ_Edk2/edk2_LG_G7_THINQ/workspace/Build/LgG7ThinQPkg/DEBUG_GCC5/AARCH64/MdeModulePkg/Library/BootMaintenanceManagerUiLib/BootMaintenanceManagerUiLib/OUTPUT/BootMaintenanceManagerUiLib.lib(BmLib.obj)
                              Variable.obj (symbol from plugin) (EfiLibDeleteVariable)
/home/j0sh1x/Lg_G7_ThinQ_Edk2/edk2_LG_G7_THINQ/workspace/Build/LgG7ThinQPkg/DEBUG_GCC5/AARCH64/MdeModulePkg/Library/BootMaintenanceManagerUiLib/BootMaintenanceManagerUiLib/OUTPUT/BootMaintenanceManagerUiLib.lib(BootMaintenanceManagerCustomizedUi.obj)
                              BootMaintenance.obj (symbol from plugin) (UiCustomizeBMMPage)
/home/j0sh1x/Lg_G7_ThinQ_Edk2/edk2_LG_G7_THINQ/workspace/Build/LgG7ThinQPkg/DEBUG_GCC5/AARCH64/MdeModulePkg/Library/BootMaintenanceManagerUiLib/BootMaintenanceManagerUiLib/OUTPUT/BootMaintenanceManagerUiLib.lib(BootMaintenanceManagerCustomizedUiSupport.obj)
                              BootMaintenanceManagerCustomizedUi.obj (symbol from plugin) (BmmCreateBootNextMenu)
/home/j0sh1x/Lg_G7_ThinQ_Edk2/edk2_LG_G7_THINQ/workspace/Build/LgG7ThinQPkg/DEBUG_GCC5/AARCH64/MdeModulePkg/Library/BootMaintenanceManagerUiLib/BootMaintenanceManagerUiLib/OUTPUT/BootMaintenanceManagerUiLib.lib(AutoGen.obj)
                              BootMaintenance.obj (symbol from plugin) (BootMaintenanceManagerUiLibStrings)
/home/j0sh1x/Lg_G7_ThinQ_Edk2/edk2_LG_G7_THINQ/workspace/Build/LgG7ThinQPkg/DEBUG_GCC5/AARCH64/MdeModulePkg/Library/BootMaintenanceManagerUiLib/BootMaintenanceManagerUiLib/OUTPUT/BootMaintenanceManagerUiLib.lib(BootMaintenanceManager.obj)
                              BootMaintenance.obj (symbol from plugin) (BootMaintenanceManagerBin)
/home/j0sh1x/Lg_G7_ThinQ_Edk2/edk2_LG_G7_THINQ/workspace/Build/LgG7ThinQPkg/DEBUG_GCC5/AARCH64/MdePkg/Library/BaseMemoryLibOptDxe/BaseMemoryLibOptDxe/OUTPUT/BaseMemoryLibOptDxe.lib(ZeroMemWrapper.obj)
                              SafeString.obj (symbol from plugin) (ZeroMem)
/home/j0sh1x/Lg_G7_ThinQ_Edk2/edk2_LG_G7_THINQ/workspace/Build/LgG7ThinQPkg/DEBUG_GCC5/AARCH64/MdePkg/Library/BaseMemoryLibOptDxe/BaseMemoryLibOptDxe/OUTPUT/BaseMemoryLibOptDxe.lib(CompareMemWrapper.obj)
                              HiiLib.obj (symbol from plugin) (CompareMem)
/home/j0sh1x/Lg_G7_ThinQ_Edk2/edk2_LG_G7_THINQ/workspace/Build/LgG7ThinQPkg/DEBUG_GCC5/AARCH64/MdePkg/Library/BaseMemoryLibOptDxe/BaseMemoryLibOptDxe/OUTPUT/BaseMemoryLibOptDxe.lib(SetMem16Wrapper.obj)
                              Console.obj (symbol from plugin) (SetMem16)
/home/j0sh1x/Lg_G7_ThinQ_Edk2/edk2_LG_G7_THINQ/workspace/Build/LgG7ThinQPkg/DEBUG_GCC5/AARCH64/MdePkg/Library/BaseMemoryLibOptDxe/BaseMemoryLibOptDxe/OUTPUT/BaseMemoryLibOptDxe.lib(SetMemWrapper.obj)
                              DebugLib.obj (symbol from plugin) (SetMem)
/home/j0sh1x/Lg_G7_ThinQ_Edk2/edk2_LG_G7_THINQ/workspace/Build/LgG7ThinQPkg/DEBUG_GCC5/AARCH64/MdePkg/Library/BaseMemoryLibOptDxe/BaseMemoryLibOptDxe/OUTPUT/BaseMemoryLibOptDxe.lib(IsZeroBufferWrapper.obj)
                              FileExplorer.obj (symbol from plugin) (IsZeroBuffer)
/home/j0sh1x/Lg_G7_ThinQ_Edk2/edk2_LG_G7_THINQ/workspace/Build/LgG7ThinQPkg/DEBUG_GCC5/AARCH64/MdePkg/Library/BaseMemoryLibOptDxe/BaseMemoryLibOptDxe/OUTPUT/BaseMemoryLibOptDxe.lib(SetMem.obj)
                              SetMem16Wrapper.obj (symbol from plugin) (InternalMemSetMem16)
/home/j0sh1x/Lg_G7_ThinQ_Edk2/edk2_LG_G7_THINQ/workspace/Build/LgG7ThinQPkg/DEBUG_GCC5/AARCH64/MdePkg/Library/BaseMemoryLibOptDxe/BaseMemoryLibOptDxe/OUTPUT/BaseMemoryLibOptDxe.lib(CompareMem.obj)
                              CompareMemWrapper.obj (symbol from plugin) (InternalMemCompareMem)
/home/j0sh1x/Lg_G7_ThinQ_Edk2/edk2_LG_G7_THINQ/workspace/Build/LgG7ThinQPkg/DEBUG_GCC5/AARCH64/MdePkg/Library/BaseMemoryLibOptDxe/BaseMemoryLibOptDxe/OUTPUT/BaseMemoryLibOptDxe.lib(ScanMemGeneric.obj)
                              IsZeroBufferWrapper.obj (symbol from plugin) (InternalMemIsZeroBuffer)
/home/j0sh1x/Lg_G7_ThinQ_Edk2/edk2_LG_G7_THINQ/workspace/Build/LgG7ThinQPkg/DEBUG_GCC5/AARCH64/MdePkg/Library/BaseMemoryLibOptDxe/BaseMemoryLibOptDxe/OUTPUT/BaseMemoryLibOptDxe.lib(SetMem64Wrapper.obj)
                              SetMemWrapper.obj (symbol from plugin) (SetMem64)
/home/j0sh1x/Lg_G7_ThinQ_Edk2/edk2_LG_G7_THINQ/workspace/Build/LgG7ThinQPkg/DEBUG_GCC5/AARCH64/MdePkg/Library/BaseLib/BaseLib/OUTPUT/BaseLib.lib(SwapBytes64.obj)
                              DevicePathFromText.obj (symbol from plugin) (SwapBytes64)
/home/j0sh1x/Lg_G7_ThinQ_Edk2/edk2_LG_G7_THINQ/workspace/Build/LgG7ThinQPkg/DEBUG_GCC5/AARCH64/MdePkg/Library/BaseLib/BaseLib/OUTPUT/BaseLib.lib(LowBitSet32.obj)
                              BmHotkey.obj (symbol from plugin) (LowBitSet32)
/home/j0sh1x/Lg_G7_ThinQ_Edk2/edk2_LG_G7_THINQ/workspace/Build/LgG7ThinQPkg/DEBUG_GCC5/AARCH64/MdePkg/Library/BaseLib/BaseLib/OUTPUT/BaseLib.lib(DivU64x32Remainder.obj)
                              PrintLibInternal.obj (symbol from plugin) (DivU64x32Remainder)
/home/j0sh1x/Lg_G7_ThinQ_Edk2/edk2_LG_G7_THINQ/workspace/Build/LgG7ThinQPkg/DEBUG_GCC5/AARCH64/MdePkg/Library/BaseLib/BaseLib/OUTPUT/BaseLib.lib(BitField.obj)
                              HiiLib.obj (symbol from plugin) (BitFieldRead32)
/home/j0sh1x/Lg_G7_ThinQ_Edk2/edk2_LG_G7_THINQ/workspace/Build/LgG7ThinQPkg/DEBUG_GCC5/AARCH64/MdePkg/Library/BaseLib/BaseLib/OUTPUT/BaseLib.lib(LinkedList.obj)
                              HiiLib.obj (symbol from plugin) (InitializeListHead)
/home/j0sh1x/Lg_G7_ThinQ_Edk2/edk2_LG_G7_THINQ/workspace/Build/LgG7ThinQPkg/DEBUG_GCC5/AARCH64/MdePkg/Library/BaseLib/BaseLib/OUTPUT/BaseLib.lib(Unaligned.obj)
                              PrintLibInternal.obj (symbol from plugin) (ReadUnaligned16)
/home/j0sh1x/Lg_G7_ThinQ_Edk2/edk2_LG_G7_THINQ/workspace/Build/LgG7ThinQPkg/DEBUG_GCC5/AARCH64/MdePkg/Library/BaseDebugPrintErrorLevelLib/BaseDebugPrintErrorLevelLib/OUTPUT/BaseDebugPrintErrorLevelLib.lib(BaseDebugPrintErrorLevelLib.obj)
                              DebugLib.obj (symbol from plugin) (GetDebugPrintErrorLevel)
/home/j0sh1x/Lg_G7_ThinQ_Edk2/edk2_LG_G7_THINQ/workspace/Build/LgG7ThinQPkg/DEBUG_GCC5/AARCH64/LgG7ThinQPkg/Library/FrameBufferSerialPortLib/FrameBufferSerialPortLib/OUTPUT/FrameBufferSerialPortLib.lib(FrameBufferSerialPortLib.obj)
                              DebugLib.obj (symbol from plugin) (SerialPortInitialize)
/home/j0sh1x/Lg_G7_ThinQ_Edk2/edk2_LG_G7_THINQ/workspace/Build/LgG7ThinQPkg/DEBUG_GCC5/AARCH64/MdePkg/Library/UefiLib/UefiLib/OUTPUT/UefiLib.lib(UefiLibPrint.obj)
                              BmDriverHealth.obj (symbol from plugin) (Print)
/home/j0sh1x/Lg_G7_ThinQ_Edk2/edk2_LG_G7_THINQ/workspace/Build/LgG7ThinQPkg/DEBUG_GCC5/AARCH64/MdePkg/Library/UefiLib/UefiLib/OUTPUT/UefiLib.lib(UefiNotTiano.obj)
                              BmBoot.obj (symbol from plugin) (EfiCreateEventLegacyBootEx)
/home/j0sh1x/Lg_G7_ThinQ_Edk2/edk2_LG_G7_THINQ/workspace/Build/LgG7ThinQPkg/DEBUG_GCC5/AARCH64/MdeModulePkg/Library/UefiSortLib/UefiSortLib/OUTPUT/UefiSortLib.lib(UefiSortLib.obj)
                              BmLoadOption.obj (symbol from plugin) (PerformQuickSort)
/home/j0sh1x/Lg_G7_ThinQ_Edk2/edk2_LG_G7_THINQ/workspace/Build/LgG7ThinQPkg/DEBUG_GCC5/AARCH64/MdePkg/Library/DxeServicesLib/DxeServicesLib/OUTPUT/DxeServicesLib.lib(DxeServicesLib.obj)
                              BmBoot.obj (symbol from plugin) (GetSectionFromFv)
/home/j0sh1x/Lg_G7_ThinQ_Edk2/edk2_LG_G7_THINQ/workspace/Build/LgG7ThinQPkg/DEBUG_GCC5/AARCH64/MdeModulePkg/Library/DxePerformanceLib/DxePerformanceLib/OUTPUT/DxePerformanceLib.lib(DxePerformanceLib.obj)
                              BmBoot.obj (symbol from plugin) (StartPerformanceMeasurementEx)
/home/j0sh1x/Lg_G7_ThinQ_Edk2/edk2_LG_G7_THINQ/workspace/Build/LgG7ThinQPkg/DEBUG_GCC5/AARCH64/ArmPkg/Library/ArmLib/ArmBaseLib/OUTPUT/ArmBaseLib.lib(ArmLibSupport.obj)
                              FrameBufferSerialPortLib.obj (symbol from plugin) (ArmGetInterruptState)
/home/j0sh1x/Lg_G7_ThinQ_Edk2/edk2_LG_G7_THINQ/workspace/Build/LgG7ThinQPkg/DEBUG_GCC5/AARCH64/ArmPkg/Library/ArmLib/ArmBaseLib/OUTPUT/ArmBaseLib.lib(ArmLibSupportV8.obj)
                              FrameBufferSerialPortLib.obj (symbol from plugin) (ArmEnableInterrupts)
/home/j0sh1x/Lg_G7_ThinQ_Edk2/edk2_LG_G7_THINQ/workspace/Build/LgG7ThinQPkg/DEBUG_GCC5/AARCH64/ArmPkg/Library/ArmCacheMaintenanceLib/ArmCacheMaintenanceLib/OUTPUT/ArmCacheMaintenanceLib.lib(ArmCacheMaintenanceLib.obj)
                              FrameBufferSerialPortLib.obj (symbol from plugin) (WriteBackInvalidateDataCacheRange)
/home/j0sh1x/Lg_G7_ThinQ_Edk2/edk2_LG_G7_THINQ/workspace/Build/LgG7ThinQPkg/DEBUG_GCC5/AARCH64/ArmPkg/Library/ArmLib/ArmBaseLib/OUTPUT/ArmBaseLib.lib(ArmLib.obj)
                              ArmCacheMaintenanceLib.obj (symbol from plugin) (ArmDataCacheLineLength)
/home/j0sh1x/Lg_G7_ThinQ_Edk2/edk2_LG_G7_THINQ/workspace/Build/LgG7ThinQPkg/DEBUG_GCC5/AARCH64/ArmPkg/Library/ArmLib/ArmBaseLib/OUTPUT/ArmBaseLib.lib(AArch64Support.obj)
                              ArmCacheMaintenanceLib.obj (symbol from plugin) (ArmInvalidateDataCacheEntryByMVA)

Discarded input sections

 .text          0x0000000000000000       0x10 /home/j0sh1x/Lg_G7_ThinQ_Edk2/edk2/ArmPkg/Library/GccLto/liblto-aarch64.a
 .data          0x0000000000000000        0x0 /home/j0sh1x/Lg_G7_ThinQ_Edk2/edk2/ArmPkg/Library/GccLto/liblto-aarch64.a
 .bss           0x0000000000000000        0x0 /home/j0sh1x/Lg_G7_ThinQ_Edk2/edk2/ArmPkg/Library/GccLto/liblto-aarch64.a
 .text          0x0000000000000000        0x0 /tmp/UiApp.dll.XMj2sU.ltrans0.ltrans.o
 .data          0x0000000000000000        0x0 /tmp/UiApp.dll.XMj2sU.ltrans0.ltrans.o
 .bss           0x0000000000000000        0x0 /tmp/UiApp.dll.XMj2sU.ltrans0.ltrans.o
 .rodata.IsNodeInList.str1.1
                0x0000000000000000       0x44 /tmp/UiApp.dll.XMj2sU.ltrans0.ltrans.o
 .text.IsNodeInList
                0x0000000000000000       0xa0 /tmp/UiApp.dll.XMj2sU.ltrans0.ltrans.o
 .text.ReportStatusCode.constprop.0
                0x0000000000000000        0x8 /tmp/UiApp.dll.XMj2sU.ltrans0.ltrans.o
 .rodata._gPcd_FixedAtBuild_PcdDebugPropertyMask
                0x0000000000000000        0x1 /tmp/UiApp.dll.XMj2sU.ltrans0.ltrans.o
 .rodata._gPcd_FixedAtBuild_PcdMaximumUnicodeStringLength
                0x0000000000000000        0x4 /tmp/UiApp.dll.XMj2sU.ltrans0.ltrans.o
 .rodata._gPcd_FixedAtBuild_PcdPerformanceLibraryPropertyMask
                0x0000000000000000        0x1 /tmp/UiApp.dll.XMj2sU.ltrans0.ltrans.o
 .rodata._gPcd_FixedAtBuild_PcdReportStatusCodePropertyMask
                0x0000000000000000        0x1 /tmp/UiApp.dll.XMj2sU.ltrans0.ltrans.o
 .rodata._gPcd_FixedAtBuild_PcdResetOnMemoryTypeInformationChange
                0x0000000000000000        0x1 /tmp/UiApp.dll.XMj2sU.ltrans0.ltrans.o
 .rodata.gHeight
                0x0000000000000000        0x8 /tmp/UiApp.dll.XMj2sU.ltrans0.ltrans.o
 .rodata.gWidth
                0x0000000000000000        0x8 /tmp/UiApp.dll.XMj2sU.ltrans0.ltrans.o
 .rodata.mBmmCallbackInfo
                0x0000000000000000        0x8 /tmp/UiApp.dll.XMj2sU.ltrans0.ltrans.o
 .comment       0x0000000000000000       0x2d /tmp/UiApp.dll.XMj2sU.ltrans0.ltrans.o
 .note.GNU-stack
                0x0000000000000000        0x0 /tmp/UiApp.dll.XMj2sU.ltrans0.ltrans.o
 .text          0x0000000000000000        0x0 /tmp/UiApp.dll.XMj2sU.ltrans1.ltrans.o
 .data          0x0000000000000000        0x0 /tmp/UiApp.dll.XMj2sU.ltrans1.ltrans.o
 .bss           0x0000000000000000        0x0 /tmp/UiApp.dll.XMj2sU.ltrans1.ltrans.o
 .rodata.BmCollectLoadOptions.str1.1
                0x0000000000000000       0x1f /tmp/UiApp.dll.XMj2sU.ltrans1.ltrans.o
 .text.BmCollectLoadOptions
                0x0000000000000000      0x164 /tmp/UiApp.dll.XMj2sU.ltrans1.ltrans.o
 .text.ReportDebugCodeEnabled
                0x0000000000000000        0x8 /tmp/UiApp.dll.XMj2sU.ltrans1.ltrans.o
 .rodata._gUefiDriverRevision
                0x0000000000000000        0x4 /tmp/UiApp.dll.XMj2sU.ltrans1.ltrans.o
 .comment       0x0000000000000000       0x2d /tmp/UiApp.dll.XMj2sU.ltrans1.ltrans.o
 .note.GNU-stack
                0x0000000000000000        0x0 /tmp/UiApp.dll.XMj2sU.ltrans1.ltrans.o
 .text          0x0000000000000000        0x0 /tmp/UiApp.dll.XMj2sU.ltrans2.ltrans.o
 .data          0x0000000000000000        0x0 /tmp/UiApp.dll.XMj2sU.ltrans2.ltrans.o
 .bss           0x0000000000000000        0x0 /tmp/UiApp.dll.XMj2sU.ltrans2.ltrans.o
 .text.__memset
                0x0000000000000000       0x1c /tmp/UiApp.dll.XMj2sU.ltrans2.ltrans.o
 .comment       0x0000000000000000       0x2d /tmp/UiApp.dll.XMj2sU.ltrans2.ltrans.o
 .note.GNU-stack
                0x0000000000000000        0x0 /tmp/UiApp.dll.XMj2sU.ltrans2.ltrans.o
 .comment       0x0000000000000000       0x2d /tmp/ccXLiP8S.debug.temp.o
 .note.GNU-stack
                0x0000000000000000        0x0 /tmp/ccXLiP8S.debug.temp.o
 .comment       0x0000000000000000       0x2d /tmp/ccHI6sZU.debug.temp.o
 .note.GNU-stack
                0x0000000000000000        0x0 /tmp/ccHI6sZU.debug.temp.o
 .comment       0x0000000000000000       0x2d /tmp/ccbZWGAS.debug.temp.o
 .note.GNU-stack
                0x0000000000000000        0x0 /tmp/ccbZWGAS.debug.temp.o
 .comment       0x0000000000000000       0x2d /tmp/ccjj85FU.debug.temp.o
 .note.GNU-stack
                0x0000000000000000        0x0 /tmp/ccjj85FU.debug.temp.o
 .comment       0x0000000000000000       0x2d /tmp/ccvZjDvR.debug.temp.o
 .note.GNU-stack
                0x0000000000000000        0x0 /tmp/ccvZjDvR.debug.temp.o
 .comment       0x0000000000000000       0x2d /tmp/ccdkOiRQ.debug.temp.o
 .note.GNU-stack
                0x0000000000000000        0x0 /tmp/ccdkOiRQ.debug.temp.o
 .comment       0x0000000000000000       0x2d /tmp/ccgCqmwU.debug.temp.o
 .note.GNU-stack
                0x0000000000000000        0x0 /tmp/ccgCqmwU.debug.temp.o
 .comment       0x0000000000000000       0x2d /tmp/ccPsHtGU.debug.temp.o
 .note.GNU-stack
                0x0000000000000000        0x0 /tmp/ccPsHtGU.debug.temp.o
 .comment       0x0000000000000000       0x2d /tmp/ccS6TKZU.debug.temp.o
 .note.GNU-stack
                0x0000000000000000        0x0 /tmp/ccS6TKZU.debug.temp.o
 .comment       0x0000000000000000       0x2d /tmp/cc66O6fR.debug.temp.o
 .note.GNU-stack
                0x0000000000000000        0x0 /tmp/cc66O6fR.debug.temp.o
 .comment       0x0000000000000000       0x2d /tmp/ccXlCKRU.debug.temp.o
 .note.GNU-stack
                0x0000000000000000        0x0 /tmp/ccXlCKRU.debug.temp.o
 .comment       0x0000000000000000       0x2d /tmp/ccaPmWDQ.debug.temp.o
 .note.GNU-stack
                0x0000000000000000        0x0 /tmp/ccaPmWDQ.debug.temp.o
 .comment       0x0000000000000000       0x2d /tmp/cccZLibS.debug.temp.o
 .note.GNU-stack
                0x0000000000000000        0x0 /tmp/cccZLibS.debug.temp.o
 .comment       0x0000000000000000       0x2d /tmp/ccWZsIWU.debug.temp.o
 .note.GNU-stack
                0x0000000000000000        0x0 /tmp/ccWZsIWU.debug.temp.o
 .comment       0x0000000000000000       0x2d /tmp/ccm2PzcV.debug.temp.o
 .note.GNU-stack
                0x0000000000000000        0x0 /tmp/ccm2PzcV.debug.temp.o
 .comment       0x0000000000000000       0x2d /tmp/ccceNeTU.debug.temp.o
 .note.GNU-stack
                0x0000000000000000        0x0 /tmp/ccceNeTU.debug.temp.o
 .comment       0x0000000000000000       0x2d /tmp/ccW9ed8S.debug.temp.o
 .note.GNU-stack
                0x0000000000000000        0x0 /tmp/ccW9ed8S.debug.temp.o
 .comment       0x0000000000000000       0x2d /tmp/ccm31qhR.debug.temp.o
 .note.GNU-stack
                0x0000000000000000        0x0 /tmp/ccm31qhR.debug.temp.o
 .debug_info    0x0000000000000000      0x27c /tmp/ccte6NFR.debug.temp.o
 .debug_abbrev  0x0000000000000000       0xcf /tmp/ccte6NFR.debug.temp.o
 .debug_line    0x0000000000000000      0x183 /tmp/ccte6NFR.debug.temp.o
 .debug_str     0x0000000000000000      0x5ab /tmp/ccte6NFR.debug.temp.o
 .comment       0x0000000000000000       0x2d /tmp/ccte6NFR.debug.temp.o
 .note.GNU-stack
                0x0000000000000000        0x0 /tmp/ccte6NFR.debug.temp.o
 .debug_info    0x0000000000000000      0x264 /tmp/cc58XuXQ.debug.temp.o
 .debug_abbrev  0x0000000000000000       0xc0 /tmp/cc58XuXQ.debug.temp.o
 .debug_line    0x0000000000000000      0x183 /tmp/cc58XuXQ.debug.temp.o
 .debug_str     0x0000000000000000      0x594 /tmp/cc58XuXQ.debug.temp.o
 .comment       0x0000000000000000       0x2d /tmp/cc58XuXQ.debug.temp.o
 .note.GNU-stack
                0x0000000000000000        0x0 /tmp/cc58XuXQ.debug.temp.o
 .comment       0x0000000000000000       0x2d /tmp/ccJJN2YR.debug.temp.o
 .note.GNU-stack
                0x0000000000000000        0x0 /tmp/ccJJN2YR.debug.temp.o
 .comment       0x0000000000000000       0x2d /tmp/ccJmC5ST.debug.temp.o
 .note.GNU-stack
                0x0000000000000000        0x0 /tmp/ccJmC5ST.debug.temp.o
 .debug_info    0x0000000000000000      0x270 /tmp/ccTwufMT.debug.temp.o
 .debug_abbrev  0x0000000000000000       0xc0 /tmp/ccTwufMT.debug.temp.o
 .debug_line    0x0000000000000000      0x181 /tmp/ccTwufMT.debug.temp.o
 .debug_str     0x0000000000000000      0x59b /tmp/ccTwufMT.debug.temp.o
 .comment       0x0000000000000000       0x2d /tmp/ccTwufMT.debug.temp.o
 .note.GNU-stack
                0x0000000000000000        0x0 /tmp/ccTwufMT.debug.temp.o
 .comment       0x0000000000000000       0x2d /tmp/ccOuQ4KT.debug.temp.o
 .note.GNU-stack
                0x0000000000000000        0x0 /tmp/ccOuQ4KT.debug.temp.o
 .comment       0x0000000000000000       0x2d /tmp/ccM2xJwU.debug.temp.o
 .note.GNU-stack
                0x0000000000000000        0x0 /tmp/ccM2xJwU.debug.temp.o
 .comment       0x0000000000000000       0x2d /tmp/cczy6ObT.debug.temp.o
 .note.GNU-stack
                0x0000000000000000        0x0 /tmp/cczy6ObT.debug.temp.o
 .comment       0x0000000000000000       0x2d /tmp/ccFcJpRR.debug.temp.o
 .note.GNU-stack
                0x0000000000000000        0x0 /tmp/ccFcJpRR.debug.temp.o
 .comment       0x0000000000000000       0x2d /tmp/ccXG1aHR.debug.temp.o
 .note.GNU-stack
                0x0000000000000000        0x0 /tmp/ccXG1aHR.debug.temp.o
 .comment       0x0000000000000000       0x2d /tmp/ccsmktNQ.debug.temp.o
 .note.GNU-stack
                0x0000000000000000        0x0 /tmp/ccsmktNQ.debug.temp.o
 .comment       0x0000000000000000       0x2d /tmp/ccjGG10Q.debug.temp.o
 .note.GNU-stack
                0x0000000000000000        0x0 /tmp/ccjGG10Q.debug.temp.o
 .comment       0x0000000000000000       0x2d /tmp/ccEM87ZS.debug.temp.o
 .note.GNU-stack
                0x0000000000000000        0x0 /tmp/ccEM87ZS.debug.temp.o
 .comment       0x0000000000000000       0x2d /tmp/ccPo6V8U.debug.temp.o
 .note.GNU-stack
                0x0000000000000000        0x0 /tmp/ccPo6V8U.debug.temp.o
 .debug_info    0x0000000000000000     0x468b /tmp/ccBuBGiU.debug.temp.o
 .debug_abbrev  0x0000000000000000      0x2b0 /tmp/ccBuBGiU.debug.temp.o
 .debug_line    0x0000000000000000      0x41f /tmp/ccBuBGiU.debug.temp.o
 .debug_str     0x0000000000000000     0x3077 /tmp/ccBuBGiU.debug.temp.o
 .comment       0x0000000000000000       0x2d /tmp/ccBuBGiU.debug.temp.o
 .note.GNU-stack
                0x0000000000000000        0x0 /tmp/ccBuBGiU.debug.temp.o
 .comment       0x0000000000000000       0x2d /tmp/ccBpDpES.debug.temp.o
 .note.GNU-stack
                0x0000000000000000        0x0 /tmp/ccBpDpES.debug.temp.o
 .comment       0x0000000000000000       0x2d /tmp/ccrdz0RS.debug.temp.o
 .note.GNU-stack
                0x0000000000000000        0x0 /tmp/ccrdz0RS.debug.temp.o
 .comment       0x0000000000000000       0x2d /tmp/ccekzuFS.debug.temp.o
 .note.GNU-stack
                0x0000000000000000        0x0 /tmp/ccekzuFS.debug.temp.o
 .comment       0x0000000000000000       0x2d /tmp/ccYslnBT.debug.temp.o
 .note.GNU-stack
                0x0000000000000000        0x0 /tmp/ccYslnBT.debug.temp.o
 .comment       0x0000000000000000       0x2d /tmp/cc0LOACS.debug.temp.o
 .note.GNU-stack
                0x0000000000000000        0x0 /tmp/cc0LOACS.debug.temp.o
 .comment       0x0000000000000000       0x2d /tmp/ccEskqoR.debug.temp.o
 .note.GNU-stack
                0x0000000000000000        0x0 /tmp/ccEskqoR.debug.temp.o
 .comment       0x0000000000000000       0x2d /tmp/ccHeV3DT.debug.temp.o
 .note.GNU-stack
                0x0000000000000000        0x0 /tmp/ccHeV3DT.debug.temp.o
 .comment       0x0000000000000000       0x2d /tmp/cc2mNBZT.debug.temp.o
 .note.GNU-stack
                0x0000000000000000        0x0 /tmp/cc2mNBZT.debug.temp.o
 .comment       0x0000000000000000       0x2d /tmp/ccS0JqQT.debug.temp.o
 .note.GNU-stack
                0x0000000000000000        0x0 /tmp/ccS0JqQT.debug.temp.o
 .comment       0x0000000000000000       0x2d /tmp/cc8peQEQ.debug.temp.o
 .note.GNU-stack
                0x0000000000000000        0x0 /tmp/cc8peQEQ.debug.temp.o
 .comment       0x0000000000000000       0x2d /tmp/ccyMiI0S.debug.temp.o
 .note.GNU-stack
                0x0000000000000000        0x0 /tmp/ccyMiI0S.debug.temp.o
 .comment       0x0000000000000000       0x2d /tmp/cc2WlFER.debug.temp.o
 .note.GNU-stack
                0x0000000000000000        0x0 /tmp/cc2WlFER.debug.temp.o
 .comment       0x0000000000000000       0x2d /tmp/ccLojDwR.debug.temp.o
 .note.GNU-stack
                0x0000000000000000        0x0 /tmp/ccLojDwR.debug.temp.o
 .comment       0x0000000000000000       0x2d /tmp/ccbgtkuR.debug.temp.o
 .note.GNU-stack
                0x0000000000000000        0x0 /tmp/ccbgtkuR.debug.temp.o
 .comment       0x0000000000000000       0x2d /tmp/ccw2XMyR.debug.temp.o
 .note.GNU-stack
                0x0000000000000000        0x0 /tmp/ccw2XMyR.debug.temp.o
 .comment       0x0000000000000000       0x2d /tmp/ccScQ5TT.debug.temp.o
 .note.GNU-stack
                0x0000000000000000        0x0 /tmp/ccScQ5TT.debug.temp.o
 .comment       0x0000000000000000       0x2d /tmp/cck1YTvR.debug.temp.o
 .note.GNU-stack
                0x0000000000000000        0x0 /tmp/cck1YTvR.debug.temp.o
 .comment       0x0000000000000000       0x2d /tmp/ccpMjIOQ.debug.temp.o
 .note.GNU-stack
                0x0000000000000000        0x0 /tmp/ccpMjIOQ.debug.temp.o
 .comment       0x0000000000000000       0x2d /tmp/ccv4Zh4S.debug.temp.o
 .note.GNU-stack
                0x0000000000000000        0x0 /tmp/ccv4Zh4S.debug.temp.o
 .comment       0x0000000000000000       0x2d /tmp/ccJEni1T.debug.temp.o
 .note.GNU-stack
                0x0000000000000000        0x0 /tmp/ccJEni1T.debug.temp.o
 .comment       0x0000000000000000       0x2d /tmp/ccCsTHgT.debug.temp.o
 .note.GNU-stack
                0x0000000000000000        0x0 /tmp/ccCsTHgT.debug.temp.o
 .comment       0x0000000000000000       0x2d /tmp/ccV91cCT.debug.temp.o
 .note.GNU-stack
                0x0000000000000000        0x0 /tmp/ccV91cCT.debug.temp.o
 .comment       0x0000000000000000       0x2d /tmp/cc2HUEyU.debug.temp.o
 .note.GNU-stack
                0x0000000000000000        0x0 /tmp/cc2HUEyU.debug.temp.o
 .comment       0x0000000000000000       0x2d /tmp/cce1JztT.debug.temp.o
 .note.GNU-stack
                0x0000000000000000        0x0 /tmp/cce1JztT.debug.temp.o
 .comment       0x0000000000000000       0x2d /tmp/ccrFTh4U.debug.temp.o
 .note.GNU-stack
                0x0000000000000000        0x0 /tmp/ccrFTh4U.debug.temp.o
 .comment       0x0000000000000000       0x2d /tmp/ccInoOOQ.debug.temp.o
 .note.GNU-stack
                0x0000000000000000        0x0 /tmp/ccInoOOQ.debug.temp.o
 .comment       0x0000000000000000       0x2d /tmp/cc2chVAS.debug.temp.o
 .note.GNU-stack
                0x0000000000000000        0x0 /tmp/cc2chVAS.debug.temp.o
 .comment       0x0000000000000000       0x2d /tmp/ccO4li8S.debug.temp.o
 .note.GNU-stack
                0x0000000000000000        0x0 /tmp/ccO4li8S.debug.temp.o
 .comment       0x0000000000000000       0x2d /tmp/ccSZCavR.debug.temp.o
 .note.GNU-stack
                0x0000000000000000        0x0 /tmp/ccSZCavR.debug.temp.o
 .comment       0x0000000000000000       0x2d /tmp/ccewbZ9R.debug.temp.o
 .note.GNU-stack
                0x0000000000000000        0x0 /tmp/ccewbZ9R.debug.temp.o
 .comment       0x0000000000000000       0x2d /tmp/ccetwARS.debug.temp.o
 .note.GNU-stack
                0x0000000000000000        0x0 /tmp/ccetwARS.debug.temp.o
 .comment       0x0000000000000000       0x2d /tmp/ccAREOzT.debug.temp.o
 .note.GNU-stack
                0x0000000000000000        0x0 /tmp/ccAREOzT.debug.temp.o
 .comment       0x0000000000000000       0x2d /tmp/ccpEIRxU.debug.temp.o
 .note.GNU-stack
                0x0000000000000000        0x0 /tmp/ccpEIRxU.debug.temp.o
 .comment       0x0000000000000000       0x2d /tmp/ccTCICPS.debug.temp.o
 .note.GNU-stack
                0x0000000000000000        0x0 /tmp/ccTCICPS.debug.temp.o
 .comment       0x0000000000000000       0x2d /tmp/ccqutFuR.debug.temp.o
 .note.GNU-stack
                0x0000000000000000        0x0 /tmp/ccqutFuR.debug.temp.o
 .comment       0x0000000000000000       0x2d /tmp/ccIYQUNR.debug.temp.o
 .note.GNU-stack
                0x0000000000000000        0x0 /tmp/ccIYQUNR.debug.temp.o
 .comment       0x0000000000000000       0x2d /tmp/ccTw1qWQ.debug.temp.o
 .note.GNU-stack
                0x0000000000000000        0x0 /tmp/ccTw1qWQ.debug.temp.o
 .comment       0x0000000000000000       0x2d /tmp/ccAwWaIQ.debug.temp.o
 .note.GNU-stack
                0x0000000000000000        0x0 /tmp/ccAwWaIQ.debug.temp.o
 .comment       0x0000000000000000       0x2d /tmp/ccjRYKcR.debug.temp.o
 .note.GNU-stack
                0x0000000000000000        0x0 /tmp/ccjRYKcR.debug.temp.o
 .comment       0x0000000000000000       0x2d /tmp/ccPe9rXU.debug.temp.o
 .note.GNU-stack
                0x0000000000000000        0x0 /tmp/ccPe9rXU.debug.temp.o
 .comment       0x0000000000000000       0x2d /tmp/cca5TRcU.debug.temp.o
 .note.GNU-stack
                0x0000000000000000        0x0 /tmp/cca5TRcU.debug.temp.o
 .comment       0x0000000000000000       0x2d /tmp/ccKnqrhT.debug.temp.o
 .note.GNU-stack
                0x0000000000000000        0x0 /tmp/ccKnqrhT.debug.temp.o
 .comment       0x0000000000000000       0x2d /tmp/ccb82HeS.debug.temp.o
 .note.GNU-stack
                0x0000000000000000        0x0 /tmp/ccb82HeS.debug.temp.o
 .debug_info    0x0000000000000000      0x238 /tmp/cc6y9yIS.debug.temp.o
 .debug_abbrev  0x0000000000000000       0xc0 /tmp/cc6y9yIS.debug.temp.o
 .debug_line    0x0000000000000000      0x1ab /tmp/cc6y9yIS.debug.temp.o
 .debug_str     0x0000000000000000      0x4c6 /tmp/cc6y9yIS.debug.temp.o
 .comment       0x0000000000000000       0x2d /tmp/cc6y9yIS.debug.temp.o
 .note.GNU-stack
                0x0000000000000000        0x0 /tmp/cc6y9yIS.debug.temp.o
 .debug_info    0x0000000000000000      0x264 /tmp/ccEZFS4R.debug.temp.o
 .debug_abbrev  0x0000000000000000       0xc0 /tmp/ccEZFS4R.debug.temp.o
 .debug_line    0x0000000000000000      0x183 /tmp/ccEZFS4R.debug.temp.o
 .debug_str     0x0000000000000000      0x594 /tmp/ccEZFS4R.debug.temp.o
 .comment       0x0000000000000000       0x2d /tmp/ccEZFS4R.debug.temp.o
 .note.GNU-stack
                0x0000000000000000        0x0 /tmp/ccEZFS4R.debug.temp.o
 .debug_info    0x0000000000000000      0x288 /tmp/ccWi2E2R.debug.temp.o
 .debug_abbrev  0x0000000000000000       0xcf /tmp/ccWi2E2R.debug.temp.o
 .debug_line    0x0000000000000000      0x183 /tmp/ccWi2E2R.debug.temp.o
 .debug_str     0x0000000000000000      0x5aa /tmp/ccWi2E2R.debug.temp.o
 .comment       0x0000000000000000       0x2d /tmp/ccWi2E2R.debug.temp.o
 .note.GNU-stack
                0x0000000000000000        0x0 /tmp/ccWi2E2R.debug.temp.o
 .comment       0x0000000000000000       0x2d /tmp/ccMkDz1R.debug.temp.o
 .note.GNU-stack
                0x0000000000000000        0x0 /tmp/ccMkDz1R.debug.temp.o
 .debug_info    0x0000000000000000      0x940 /tmp/ccgHvdYR.debug.temp.o
 .debug_abbrev  0x0000000000000000      0x108 /tmp/ccgHvdYR.debug.temp.o
 .debug_line    0x0000000000000000      0x180 /tmp/ccgHvdYR.debug.temp.o
 .debug_str     0x0000000000000000      0x787 /tmp/ccgHvdYR.debug.temp.o
 .comment       0x0000000000000000       0x2d /tmp/ccgHvdYR.debug.temp.o
 .note.GNU-stack
                0x0000000000000000        0x0 /tmp/ccgHvdYR.debug.temp.o
 .comment       0x0000000000000000       0x2d /tmp/cc9Q5zIU.debug.temp.o
 .note.GNU-stack
                0x0000000000000000        0x0 /tmp/cc9Q5zIU.debug.temp.o
 .comment       0x0000000000000000       0x2d /tmp/ccPjCGAU.debug.temp.o
 .note.GNU-stack
                0x0000000000000000        0x0 /tmp/ccPjCGAU.debug.temp.o
 .comment       0x0000000000000000       0x2d /tmp/cc9cQLlR.debug.temp.o
 .note.GNU-stack
                0x0000000000000000        0x0 /tmp/cc9cQLlR.debug.temp.o
 .comment       0x0000000000000000       0x2d /tmp/ccpY3HmT.debug.temp.o
 .note.GNU-stack
                0x0000000000000000        0x0 /tmp/ccpY3HmT.debug.temp.o
 .comment       0x0000000000000000       0x2d /tmp/ccPgV1IS.debug.temp.o
 .note.GNU-stack
                0x0000000000000000        0x0 /tmp/ccPgV1IS.debug.temp.o
 .comment       0x0000000000000000       0x2d /tmp/ccAZHEoS.debug.temp.o
 .note.GNU-stack
                0x0000000000000000        0x0 /tmp/ccAZHEoS.debug.temp.o
 .debug_info    0x0000000000000000     0x1ca0 /tmp/ccTnPpwU.debug.temp.o
 .debug_abbrev  0x0000000000000000      0x22d /tmp/ccTnPpwU.debug.temp.o
 .debug_line    0x0000000000000000      0x3b6 /tmp/ccTnPpwU.debug.temp.o
 .debug_str     0x0000000000000000     0x1910 /tmp/ccTnPpwU.debug.temp.o
 .comment       0x0000000000000000       0x2d /tmp/ccTnPpwU.debug.temp.o
 .note.GNU-stack
                0x0000000000000000        0x0 /tmp/ccTnPpwU.debug.temp.o
 .comment       0x0000000000000000       0x2d /tmp/ccWXLb3R.debug.temp.o
 .note.GNU-stack
                0x0000000000000000        0x0 /tmp/ccWXLb3R.debug.temp.o
 .comment       0x0000000000000000       0x2d /tmp/ccvl1Y7U.debug.temp.o
 .note.GNU-stack
                0x0000000000000000        0x0 /tmp/ccvl1Y7U.debug.temp.o
 .comment       0x0000000000000000       0x2d /tmp/ccUGi1pS.debug.temp.o
 .note.GNU-stack
                0x0000000000000000        0x0 /tmp/ccUGi1pS.debug.temp.o
 .comment       0x0000000000000000       0x2d /tmp/ccaWLOnS.debug.temp.o
 .note.GNU-stack
                0x0000000000000000        0x0 /tmp/ccaWLOnS.debug.temp.o
 .data          0x0000000000000000        0x0 /home/j0sh1x/Lg_G7_ThinQ_Edk2/edk2_LG_G7_THINQ/workspace/Build/LgG7ThinQPkg/DEBUG_GCC5/AARCH64/MdePkg/Library/BaseMemoryLibOptDxe/BaseMemoryLibOptDxe/OUTPUT/BaseMemoryLibOptDxe.lib(CopyMem.obj)
 .bss           0x0000000000000000        0x0 /home/j0sh1x/Lg_G7_ThinQ_Edk2/edk2_LG_G7_THINQ/workspace/Build/LgG7ThinQPkg/DEBUG_GCC5/AARCH64/MdePkg/Library/BaseMemoryLibOptDxe/BaseMemoryLibOptDxe/OUTPUT/BaseMemoryLibOptDxe.lib(CopyMem.obj)
 .data          0x0000000000000000        0x0 /home/j0sh1x/Lg_G7_ThinQ_Edk2/edk2_LG_G7_THINQ/workspace/Build/LgG7ThinQPkg/DEBUG_GCC5/AARCH64/MdePkg/Library/BaseMemoryLibOptDxe/BaseMemoryLibOptDxe/OUTPUT/BaseMemoryLibOptDxe.lib(CompareGuid.obj)
 .bss           0x0000000000000000        0x0 /home/j0sh1x/Lg_G7_ThinQ_Edk2/edk2_LG_G7_THINQ/workspace/Build/LgG7ThinQPkg/DEBUG_GCC5/AARCH64/MdePkg/Library/BaseMemoryLibOptDxe/BaseMemoryLibOptDxe/OUTPUT/BaseMemoryLibOptDxe.lib(CompareGuid.obj)
 .text          0x0000000000000000        0x8 /home/j0sh1x/Lg_G7_ThinQ_Edk2/edk2_LG_G7_THINQ/workspace/Build/LgG7ThinQPkg/DEBUG_GCC5/AARCH64/MdePkg/Library/BaseLib/BaseLib/OUTPUT/BaseLib.lib(CpuBreakpoint.obj)
 .data          0x0000000000000000        0x0 /home/j0sh1x/Lg_G7_ThinQ_Edk2/edk2_LG_G7_THINQ/workspace/Build/LgG7ThinQPkg/DEBUG_GCC5/AARCH64/MdePkg/Library/BaseLib/BaseLib/OUTPUT/BaseLib.lib(CpuBreakpoint.obj)
 .bss           0x0000000000000000        0x0 /home/j0sh1x/Lg_G7_ThinQ_Edk2/edk2_LG_G7_THINQ/workspace/Build/LgG7ThinQPkg/DEBUG_GCC5/AARCH64/MdePkg/Library/BaseLib/BaseLib/OUTPUT/BaseLib.lib(CpuBreakpoint.obj)
 .data          0x0000000000000000        0x0 /home/j0sh1x/Lg_G7_ThinQ_Edk2/edk2_LG_G7_THINQ/workspace/Build/LgG7ThinQPkg/DEBUG_GCC5/AARCH64/MdePkg/Library/BaseMemoryLibOptDxe/BaseMemoryLibOptDxe/OUTPUT/BaseMemoryLibOptDxe.lib(SetMem.obj)
 .bss           0x0000000000000000        0x0 /home/j0sh1x/Lg_G7_ThinQ_Edk2/edk2_LG_G7_THINQ/workspace/Build/LgG7ThinQPkg/DEBUG_GCC5/AARCH64/MdePkg/Library/BaseMemoryLibOptDxe/BaseMemoryLibOptDxe/OUTPUT/BaseMemoryLibOptDxe.lib(SetMem.obj)
 .data          0x0000000000000000        0x0 /home/j0sh1x/Lg_G7_ThinQ_Edk2/edk2_LG_G7_THINQ/workspace/Build/LgG7ThinQPkg/DEBUG_GCC5/AARCH64/MdePkg/Library/BaseMemoryLibOptDxe/BaseMemoryLibOptDxe/OUTPUT/BaseMemoryLibOptDxe.lib(CompareMem.obj)
 .bss           0x0000000000000000        0x0 /home/j0sh1x/Lg_G7_ThinQ_Edk2/edk2_LG_G7_THINQ/workspace/Build/LgG7ThinQPkg/DEBUG_GCC5/AARCH64/MdePkg/Library/BaseMemoryLibOptDxe/BaseMemoryLibOptDxe/OUTPUT/BaseMemoryLibOptDxe.lib(CompareMem.obj)
 .text          0x0000000000000000        0x0 /home/j0sh1x/Lg_G7_ThinQ_Edk2/edk2_LG_G7_THINQ/workspace/Build/LgG7ThinQPkg/DEBUG_GCC5/AARCH64/ArmPkg/Library/ArmLib/ArmBaseLib/OUTPUT/ArmBaseLib.lib(ArmLibSupport.obj)
 .data          0x0000000000000000        0x0 /home/j0sh1x/Lg_G7_ThinQ_Edk2/edk2_LG_G7_THINQ/workspace/Build/LgG7ThinQPkg/DEBUG_GCC5/AARCH64/ArmPkg/Library/ArmLib/ArmBaseLib/OUTPUT/ArmBaseLib.lib(ArmLibSupport.obj)
 .bss           0x0000000000000000        0x0 /home/j0sh1x/Lg_G7_ThinQ_Edk2/edk2_LG_G7_THINQ/workspace/Build/LgG7ThinQPkg/DEBUG_GCC5/AARCH64/ArmPkg/Library/ArmLib/ArmBaseLib/OUTPUT/ArmBaseLib.lib(ArmLibSupport.obj)
 .text.ArmReadMidr
                0x0000000000000000        0x8 /home/j0sh1x/Lg_G7_ThinQ_Edk2/edk2_LG_G7_THINQ/workspace/Build/LgG7ThinQPkg/DEBUG_GCC5/AARCH64/ArmPkg/Library/ArmLib/ArmBaseLib/OUTPUT/ArmBaseLib.lib(ArmLibSupport.obj)
 .text.ArmGetFiqState
                0x0000000000000000       0x10 /home/j0sh1x/Lg_G7_ThinQ_Edk2/edk2_LG_G7_THINQ/workspace/Build/LgG7ThinQPkg/DEBUG_GCC5/AARCH64/ArmPkg/Library/ArmLib/ArmBaseLib/OUTPUT/ArmBaseLib.lib(ArmLibSupport.obj)
 .text.ArmWriteCpacr
                0x0000000000000000        0x8 /home/j0sh1x/Lg_G7_ThinQ_Edk2/edk2_LG_G7_THINQ/workspace/Build/LgG7ThinQPkg/DEBUG_GCC5/AARCH64/ArmPkg/Library/ArmLib/ArmBaseLib/OUTPUT/ArmBaseLib.lib(ArmLibSupport.obj)
 .text.ArmWriteAuxCr
                0x0000000000000000       0x28 /home/j0sh1x/Lg_G7_ThinQ_Edk2/edk2_LG_G7_THINQ/workspace/Build/LgG7ThinQPkg/DEBUG_GCC5/AARCH64/ArmPkg/Library/ArmLib/ArmBaseLib/OUTPUT/ArmBaseLib.lib(ArmLibSupport.obj)
 .text.ArmReadAuxCr
                0x0000000000000000       0x28 /home/j0sh1x/Lg_G7_ThinQ_Edk2/edk2_LG_G7_THINQ/workspace/Build/LgG7ThinQPkg/DEBUG_GCC5/AARCH64/ArmPkg/Library/ArmLib/ArmBaseLib/OUTPUT/ArmBaseLib.lib(ArmLibSupport.obj)
 .text.ArmSetTTBR0
                0x0000000000000000       0x34 /home/j0sh1x/Lg_G7_ThinQ_Edk2/edk2_LG_G7_THINQ/workspace/Build/LgG7ThinQPkg/DEBUG_GCC5/AARCH64/ArmPkg/Library/ArmLib/ArmBaseLib/OUTPUT/ArmBaseLib.lib(ArmLibSupport.obj)
 .text.ArmGetTTBR0BaseAddress
                0x0000000000000000       0x30 /home/j0sh1x/Lg_G7_ThinQ_Edk2/edk2_LG_G7_THINQ/workspace/Build/LgG7ThinQPkg/DEBUG_GCC5/AARCH64/ArmPkg/Library/ArmLib/ArmBaseLib/OUTPUT/ArmBaseLib.lib(ArmLibSupport.obj)
 .text.ArmGetTCR
                0x0000000000000000       0x34 /home/j0sh1x/Lg_G7_ThinQ_Edk2/edk2_LG_G7_THINQ/workspace/Build/LgG7ThinQPkg/DEBUG_GCC5/AARCH64/ArmPkg/Library/ArmLib/ArmBaseLib/OUTPUT/ArmBaseLib.lib(ArmLibSupport.obj)
 .text.ArmSetTCR
                0x0000000000000000       0x34 /home/j0sh1x/Lg_G7_ThinQ_Edk2/edk2_LG_G7_THINQ/workspace/Build/LgG7ThinQPkg/DEBUG_GCC5/AARCH64/ArmPkg/Library/ArmLib/ArmBaseLib/OUTPUT/ArmBaseLib.lib(ArmLibSupport.obj)
 .text.ArmGetMAIR
                0x0000000000000000       0x34 /home/j0sh1x/Lg_G7_ThinQ_Edk2/edk2_LG_G7_THINQ/workspace/Build/LgG7ThinQPkg/DEBUG_GCC5/AARCH64/ArmPkg/Library/ArmLib/ArmBaseLib/OUTPUT/ArmBaseLib.lib(ArmLibSupport.obj)
 .text.ArmSetMAIR
                0x0000000000000000       0x34 /home/j0sh1x/Lg_G7_ThinQ_Edk2/edk2_LG_G7_THINQ/workspace/Build/LgG7ThinQPkg/DEBUG_GCC5/AARCH64/ArmPkg/Library/ArmLib/ArmBaseLib/OUTPUT/ArmBaseLib.lib(ArmLibSupport.obj)
 .text.ArmUpdateTranslationTableEntry
                0x0000000000000000       0x40 /home/j0sh1x/Lg_G7_ThinQ_Edk2/edk2_LG_G7_THINQ/workspace/Build/LgG7ThinQPkg/DEBUG_GCC5/AARCH64/ArmPkg/Library/ArmLib/ArmBaseLib/OUTPUT/ArmBaseLib.lib(ArmLibSupport.obj)
 .text.ArmInvalidateTlb
                0x0000000000000000       0x38 /home/j0sh1x/Lg_G7_ThinQ_Edk2/edk2_LG_G7_THINQ/workspace/Build/LgG7ThinQPkg/DEBUG_GCC5/AARCH64/ArmPkg/Library/ArmLib/ArmBaseLib/OUTPUT/ArmBaseLib.lib(ArmLibSupport.obj)
 .text.ArmWriteCptr
                0x0000000000000000        0x8 /home/j0sh1x/Lg_G7_ThinQ_Edk2/edk2_LG_G7_THINQ/workspace/Build/LgG7ThinQPkg/DEBUG_GCC5/AARCH64/ArmPkg/Library/ArmLib/ArmBaseLib/OUTPUT/ArmBaseLib.lib(ArmLibSupport.obj)
 .text.ArmWriteScr
                0x0000000000000000        0xc /home/j0sh1x/Lg_G7_ThinQ_Edk2/edk2_LG_G7_THINQ/workspace/Build/LgG7ThinQPkg/DEBUG_GCC5/AARCH64/ArmPkg/Library/ArmLib/ArmBaseLib/OUTPUT/ArmBaseLib.lib(ArmLibSupport.obj)
 .text.ArmWriteMVBar
                0x0000000000000000        0x8 /home/j0sh1x/Lg_G7_ThinQ_Edk2/edk2_LG_G7_THINQ/workspace/Build/LgG7ThinQPkg/DEBUG_GCC5/AARCH64/ArmPkg/Library/ArmLib/ArmBaseLib/OUTPUT/ArmBaseLib.lib(ArmLibSupport.obj)
 .text.ArmCallWFE
                0x0000000000000000        0x8 /home/j0sh1x/Lg_G7_ThinQ_Edk2/edk2_LG_G7_THINQ/workspace/Build/LgG7ThinQPkg/DEBUG_GCC5/AARCH64/ArmPkg/Library/ArmLib/ArmBaseLib/OUTPUT/ArmBaseLib.lib(ArmLibSupport.obj)
 .text.ArmCallSEV
                0x0000000000000000        0x8 /home/j0sh1x/Lg_G7_ThinQ_Edk2/edk2_LG_G7_THINQ/workspace/Build/LgG7ThinQPkg/DEBUG_GCC5/AARCH64/ArmPkg/Library/ArmLib/ArmBaseLib/OUTPUT/ArmBaseLib.lib(ArmLibSupport.obj)
 .text.ArmReadCpuActlr
                0x0000000000000000        0x8 /home/j0sh1x/Lg_G7_ThinQ_Edk2/edk2_LG_G7_THINQ/workspace/Build/LgG7ThinQPkg/DEBUG_GCC5/AARCH64/ArmPkg/Library/ArmLib/ArmBaseLib/OUTPUT/ArmBaseLib.lib(ArmLibSupport.obj)
 .text.ArmWriteCpuActlr
                0x0000000000000000       0x10 /home/j0sh1x/Lg_G7_ThinQ_Edk2/edk2_LG_G7_THINQ/workspace/Build/LgG7ThinQPkg/DEBUG_GCC5/AARCH64/ArmPkg/Library/ArmLib/ArmBaseLib/OUTPUT/ArmBaseLib.lib(ArmLibSupport.obj)
 .text.ArmReadSctlr
                0x0000000000000000       0x30 /home/j0sh1x/Lg_G7_ThinQ_Edk2/edk2_LG_G7_THINQ/workspace/Build/LgG7ThinQPkg/DEBUG_GCC5/AARCH64/ArmPkg/Library/ArmLib/ArmBaseLib/OUTPUT/ArmBaseLib.lib(ArmLibSupport.obj)
 .text.ArmWriteSctlr
                0x0000000000000000       0x30 /home/j0sh1x/Lg_G7_ThinQ_Edk2/edk2_LG_G7_THINQ/workspace/Build/LgG7ThinQPkg/DEBUG_GCC5/AARCH64/ArmPkg/Library/ArmLib/ArmBaseLib/OUTPUT/ArmBaseLib.lib(ArmLibSupport.obj)
 .text.ArmGetPhysicalAddressBits
                0x0000000000000000       0x24 /home/j0sh1x/Lg_G7_ThinQ_Edk2/edk2_LG_G7_THINQ/workspace/Build/LgG7ThinQPkg/DEBUG_GCC5/AARCH64/ArmPkg/Library/ArmLib/ArmBaseLib/OUTPUT/ArmBaseLib.lib(ArmLibSupport.obj)
 .text          0x0000000000000000        0x0 /home/j0sh1x/Lg_G7_ThinQ_Edk2/edk2_LG_G7_THINQ/workspace/Build/LgG7ThinQPkg/DEBUG_GCC5/AARCH64/ArmPkg/Library/ArmLib/ArmBaseLib/OUTPUT/ArmBaseLib.lib(ArmLibSupportV8.obj)
 .data          0x0000000000000000        0x0 /home/j0sh1x/Lg_G7_ThinQ_Edk2/edk2_LG_G7_THINQ/workspace/Build/LgG7ThinQPkg/DEBUG_GCC5/AARCH64/ArmPkg/Library/ArmLib/ArmBaseLib/OUTPUT/ArmBaseLib.lib(ArmLibSupportV8.obj)
 .bss           0x0000000000000000        0x0 /home/j0sh1x/Lg_G7_ThinQ_Edk2/edk2_LG_G7_THINQ/workspace/Build/LgG7ThinQPkg/DEBUG_GCC5/AARCH64/ArmPkg/Library/ArmLib/ArmBaseLib/OUTPUT/ArmBaseLib.lib(ArmLibSupportV8.obj)
 .text.ArmIsMpCore
                0x0000000000000000       0x14 /home/j0sh1x/Lg_G7_ThinQ_Edk2/edk2_LG_G7_THINQ/workspace/Build/LgG7ThinQPkg/DEBUG_GCC5/AARCH64/ArmPkg/Library/ArmLib/ArmBaseLib/OUTPUT/ArmBaseLib.lib(ArmLibSupportV8.obj)
 .text.ArmEnableAsynchronousAbort
                0x0000000000000000        0xc /home/j0sh1x/Lg_G7_ThinQ_Edk2/edk2_LG_G7_THINQ/workspace/Build/LgG7ThinQPkg/DEBUG_GCC5/AARCH64/ArmPkg/Library/ArmLib/ArmBaseLib/OUTPUT/ArmBaseLib.lib(ArmLibSupportV8.obj)
 .text.ArmDisableAsynchronousAbort
                0x0000000000000000        0xc /home/j0sh1x/Lg_G7_ThinQ_Edk2/edk2_LG_G7_THINQ/workspace/Build/LgG7ThinQPkg/DEBUG_GCC5/AARCH64/ArmPkg/Library/ArmLib/ArmBaseLib/OUTPUT/ArmBaseLib.lib(ArmLibSupportV8.obj)
 .text.ArmEnableIrq
                0x0000000000000000        0xc /home/j0sh1x/Lg_G7_ThinQ_Edk2/edk2_LG_G7_THINQ/workspace/Build/LgG7ThinQPkg/DEBUG_GCC5/AARCH64/ArmPkg/Library/ArmLib/ArmBaseLib/OUTPUT/ArmBaseLib.lib(ArmLibSupportV8.obj)
 .text.ArmDisableIrq
                0x0000000000000000        0xc /home/j0sh1x/Lg_G7_ThinQ_Edk2/edk2_LG_G7_THINQ/workspace/Build/LgG7ThinQPkg/DEBUG_GCC5/AARCH64/ArmPkg/Library/ArmLib/ArmBaseLib/OUTPUT/ArmBaseLib.lib(ArmLibSupportV8.obj)
 .text.ArmEnableFiq
                0x0000000000000000        0xc /home/j0sh1x/Lg_G7_ThinQ_Edk2/edk2_LG_G7_THINQ/workspace/Build/LgG7ThinQPkg/DEBUG_GCC5/AARCH64/ArmPkg/Library/ArmLib/ArmBaseLib/OUTPUT/ArmBaseLib.lib(ArmLibSupportV8.obj)
 .text.ArmDisableFiq
                0x0000000000000000        0xc /home/j0sh1x/Lg_G7_ThinQ_Edk2/edk2_LG_G7_THINQ/workspace/Build/LgG7ThinQPkg/DEBUG_GCC5/AARCH64/ArmPkg/Library/ArmLib/ArmBaseLib/OUTPUT/ArmBaseLib.lib(ArmLibSupportV8.obj)
 .text.ArmDisableAllExceptions
                0x0000000000000000        0xc /home/j0sh1x/Lg_G7_ThinQ_Edk2/edk2_LG_G7_THINQ/workspace/Build/LgG7ThinQPkg/DEBUG_GCC5/AARCH64/ArmPkg/Library/ArmLib/ArmBaseLib/OUTPUT/ArmBaseLib.lib(ArmLibSupportV8.obj)
 .text.ReadCCSIDR
                0x0000000000000000       0x10 /home/j0sh1x/Lg_G7_ThinQ_Edk2/edk2_LG_G7_THINQ/workspace/Build/LgG7ThinQPkg/DEBUG_GCC5/AARCH64/ArmPkg/Library/ArmLib/ArmBaseLib/OUTPUT/ArmBaseLib.lib(ArmLibSupportV8.obj)
 .text.ReadCLIDR
                0x0000000000000000        0x8 /home/j0sh1x/Lg_G7_ThinQ_Edk2/edk2_LG_G7_THINQ/workspace/Build/LgG7ThinQPkg/DEBUG_GCC5/AARCH64/ArmPkg/Library/ArmLib/ArmBaseLib/OUTPUT/ArmBaseLib.lib(ArmLibSupportV8.obj)
 .text          0x0000000000000000        0x0 /home/j0sh1x/Lg_G7_ThinQ_Edk2/edk2_LG_G7_THINQ/workspace/Build/LgG7ThinQPkg/DEBUG_GCC5/AARCH64/ArmPkg/Library/ArmLib/ArmBaseLib/OUTPUT/ArmBaseLib.lib(AArch64Support.obj)
 .data          0x0000000000000000        0x0 /home/j0sh1x/Lg_G7_ThinQ_Edk2/edk2_LG_G7_THINQ/workspace/Build/LgG7ThinQPkg/DEBUG_GCC5/AARCH64/ArmPkg/Library/ArmLib/ArmBaseLib/OUTPUT/ArmBaseLib.lib(AArch64Support.obj)
 .bss           0x0000000000000000        0x0 /home/j0sh1x/Lg_G7_ThinQ_Edk2/edk2_LG_G7_THINQ/workspace/Build/LgG7ThinQPkg/DEBUG_GCC5/AARCH64/ArmPkg/Library/ArmLib/ArmBaseLib/OUTPUT/ArmBaseLib.lib(AArch64Support.obj)
 .text.ArmInvalidateDataCacheEntryByMVA
                0x0000000000000000        0x8 /home/j0sh1x/Lg_G7_ThinQ_Edk2/edk2_LG_G7_THINQ/workspace/Build/LgG7ThinQPkg/DEBUG_GCC5/AARCH64/ArmPkg/Library/ArmLib/ArmBaseLib/OUTPUT/ArmBaseLib.lib(AArch64Support.obj)
 .text.ArmCleanDataCacheEntryByMVA
                0x0000000000000000        0x8 /home/j0sh1x/Lg_G7_ThinQ_Edk2/edk2_LG_G7_THINQ/workspace/Build/LgG7ThinQPkg/DEBUG_GCC5/AARCH64/ArmPkg/Library/ArmLib/ArmBaseLib/OUTPUT/ArmBaseLib.lib(AArch64Support.obj)
 .text.ArmCleanDataCacheEntryToPoUByMVA
                0x0000000000000000        0x8 /home/j0sh1x/Lg_G7_ThinQ_Edk2/edk2_LG_G7_THINQ/workspace/Build/LgG7ThinQPkg/DEBUG_GCC5/AARCH64/ArmPkg/Library/ArmLib/ArmBaseLib/OUTPUT/ArmBaseLib.lib(AArch64Support.obj)
 .text.ArmInvalidateInstructionCacheEntryToPoUByMVA
                0x0000000000000000        0x8 /home/j0sh1x/Lg_G7_ThinQ_Edk2/edk2_LG_G7_THINQ/workspace/Build/LgG7ThinQPkg/DEBUG_GCC5/AARCH64/ArmPkg/Library/ArmLib/ArmBaseLib/OUTPUT/ArmBaseLib.lib(AArch64Support.obj)
 .text.ArmInvalidateDataCacheEntryBySetWay
                0x0000000000000000        0x8 /home/j0sh1x/Lg_G7_ThinQ_Edk2/edk2_LG_G7_THINQ/workspace/Build/LgG7ThinQPkg/DEBUG_GCC5/AARCH64/ArmPkg/Library/ArmLib/ArmBaseLib/OUTPUT/ArmBaseLib.lib(AArch64Support.obj)
 .text.ArmCleanInvalidateDataCacheEntryBySetWay
                0x0000000000000000        0x8 /home/j0sh1x/Lg_G7_ThinQ_Edk2/edk2_LG_G7_THINQ/workspace/Build/LgG7ThinQPkg/DEBUG_GCC5/AARCH64/ArmPkg/Library/ArmLib/ArmBaseLib/OUTPUT/ArmBaseLib.lib(AArch64Support.obj)
 .text.ArmCleanDataCacheEntryBySetWay
                0x0000000000000000        0x8 /home/j0sh1x/Lg_G7_ThinQ_Edk2/edk2_LG_G7_THINQ/workspace/Build/LgG7ThinQPkg/DEBUG_GCC5/AARCH64/ArmPkg/Library/ArmLib/ArmBaseLib/OUTPUT/ArmBaseLib.lib(AArch64Support.obj)
 .text.ArmInvalidateInstructionCache
                0x0000000000000000       0x10 /home/j0sh1x/Lg_G7_ThinQ_Edk2/edk2_LG_G7_THINQ/workspace/Build/LgG7ThinQPkg/DEBUG_GCC5/AARCH64/ArmPkg/Library/ArmLib/ArmBaseLib/OUTPUT/ArmBaseLib.lib(AArch64Support.obj)
 .text.ArmEnableMmu
                0x0000000000000000       0x88 /home/j0sh1x/Lg_G7_ThinQ_Edk2/edk2_LG_G7_THINQ/workspace/Build/LgG7ThinQPkg/DEBUG_GCC5/AARCH64/ArmPkg/Library/ArmLib/ArmBaseLib/OUTPUT/ArmBaseLib.lib(AArch64Support.obj)
 .text.ArmDisableMmu
                0x0000000000000000       0x74 /home/j0sh1x/Lg_G7_ThinQ_Edk2/edk2_LG_G7_THINQ/workspace/Build/LgG7ThinQPkg/DEBUG_GCC5/AARCH64/ArmPkg/Library/ArmLib/ArmBaseLib/OUTPUT/ArmBaseLib.lib(AArch64Support.obj)
 .text.ArmDisableCachesAndMmu
                0x0000000000000000       0x6c /home/j0sh1x/Lg_G7_ThinQ_Edk2/edk2_LG_G7_THINQ/workspace/Build/LgG7ThinQPkg/DEBUG_GCC5/AARCH64/ArmPkg/Library/ArmLib/ArmBaseLib/OUTPUT/ArmBaseLib.lib(AArch64Support.obj)
 .text.ArmMmuEnabled
                0x0000000000000000       0x34 /home/j0sh1x/Lg_G7_ThinQ_Edk2/edk2_LG_G7_THINQ/workspace/Build/LgG7ThinQPkg/DEBUG_GCC5/AARCH64/ArmPkg/Library/ArmLib/ArmBaseLib/OUTPUT/ArmBaseLib.lib(AArch64Support.obj)
 .text.ArmEnableDataCache
                0x0000000000000000       0x68 /home/j0sh1x/Lg_G7_ThinQ_Edk2/edk2_LG_G7_THINQ/workspace/Build/LgG7ThinQPkg/DEBUG_GCC5/AARCH64/ArmPkg/Library/ArmLib/ArmBaseLib/OUTPUT/ArmBaseLib.lib(AArch64Support.obj)
 .text.ArmDisableDataCache
                0x0000000000000000       0x68 /home/j0sh1x/Lg_G7_ThinQ_Edk2/edk2_LG_G7_THINQ/workspace/Build/LgG7ThinQPkg/DEBUG_GCC5/AARCH64/ArmPkg/Library/ArmLib/ArmBaseLib/OUTPUT/ArmBaseLib.lib(AArch64Support.obj)
 .text.ArmEnableInstructionCache
                0x0000000000000000       0x68 /home/j0sh1x/Lg_G7_ThinQ_Edk2/edk2_LG_G7_THINQ/workspace/Build/LgG7ThinQPkg/DEBUG_GCC5/AARCH64/ArmPkg/Library/ArmLib/ArmBaseLib/OUTPUT/ArmBaseLib.lib(AArch64Support.obj)
 .text.ArmDisableInstructionCache
                0x0000000000000000       0x68 /home/j0sh1x/Lg_G7_ThinQ_Edk2/edk2_LG_G7_THINQ/workspace/Build/LgG7ThinQPkg/DEBUG_GCC5/AARCH64/ArmPkg/Library/ArmLib/ArmBaseLib/OUTPUT/ArmBaseLib.lib(AArch64Support.obj)
 .text.ArmEnableAlignmentCheck
                0x0000000000000000       0x58 /home/j0sh1x/Lg_G7_ThinQ_Edk2/edk2_LG_G7_THINQ/workspace/Build/LgG7ThinQPkg/DEBUG_GCC5/AARCH64/ArmPkg/Library/ArmLib/ArmBaseLib/OUTPUT/ArmBaseLib.lib(AArch64Support.obj)
 .text.ArmDisableAlignmentCheck
                0x0000000000000000       0x68 /home/j0sh1x/Lg_G7_ThinQ_Edk2/edk2_LG_G7_THINQ/workspace/Build/LgG7ThinQPkg/DEBUG_GCC5/AARCH64/ArmPkg/Library/ArmLib/ArmBaseLib/OUTPUT/ArmBaseLib.lib(AArch64Support.obj)
 .text.ArmEnableStackAlignmentCheck
                0x0000000000000000       0x58 /home/j0sh1x/Lg_G7_ThinQ_Edk2/edk2_LG_G7_THINQ/workspace/Build/LgG7ThinQPkg/DEBUG_GCC5/AARCH64/ArmPkg/Library/ArmLib/ArmBaseLib/OUTPUT/ArmBaseLib.lib(AArch64Support.obj)
 .text.ArmDisableStackAlignmentCheck
                0x0000000000000000       0x68 /home/j0sh1x/Lg_G7_ThinQ_Edk2/edk2_LG_G7_THINQ/workspace/Build/LgG7ThinQPkg/DEBUG_GCC5/AARCH64/ArmPkg/Library/ArmLib/ArmBaseLib/OUTPUT/ArmBaseLib.lib(AArch64Support.obj)
 .text.ArmEnableBranchPrediction
                0x0000000000000000        0x4 /home/j0sh1x/Lg_G7_ThinQ_Edk2/edk2_LG_G7_THINQ/workspace/Build/LgG7ThinQPkg/DEBUG_GCC5/AARCH64/ArmPkg/Library/ArmLib/ArmBaseLib/OUTPUT/ArmBaseLib.lib(AArch64Support.obj)
 .text.ArmDisableBranchPrediction
                0x0000000000000000        0x4 /home/j0sh1x/Lg_G7_ThinQ_Edk2/edk2_LG_G7_THINQ/workspace/Build/LgG7ThinQPkg/DEBUG_GCC5/AARCH64/ArmPkg/Library/ArmLib/ArmBaseLib/OUTPUT/ArmBaseLib.lib(AArch64Support.obj)
 .text.AArch64AllDataCachesOperation
                0x0000000000000000       0xa8 /home/j0sh1x/Lg_G7_ThinQ_Edk2/edk2_LG_G7_THINQ/workspace/Build/LgG7ThinQPkg/DEBUG_GCC5/AARCH64/ArmPkg/Library/ArmLib/ArmBaseLib/OUTPUT/ArmBaseLib.lib(AArch64Support.obj)
 .text.ArmDataMemoryBarrier
                0x0000000000000000        0x8 /home/j0sh1x/Lg_G7_ThinQ_Edk2/edk2_LG_G7_THINQ/workspace/Build/LgG7ThinQPkg/DEBUG_GCC5/AARCH64/ArmPkg/Library/ArmLib/ArmBaseLib/OUTPUT/ArmBaseLib.lib(AArch64Support.obj)
 .text.ArmInstructionSynchronizationBarrier
                0x0000000000000000        0x8 /home/j0sh1x/Lg_G7_ThinQ_Edk2/edk2_LG_G7_THINQ/workspace/Build/LgG7ThinQPkg/DEBUG_GCC5/AARCH64/ArmPkg/Library/ArmLib/ArmBaseLib/OUTPUT/ArmBaseLib.lib(AArch64Support.obj)
 .text.ArmWriteVBar
                0x0000000000000000       0x34 /home/j0sh1x/Lg_G7_ThinQ_Edk2/edk2_LG_G7_THINQ/workspace/Build/LgG7ThinQPkg/DEBUG_GCC5/AARCH64/ArmPkg/Library/ArmLib/ArmBaseLib/OUTPUT/ArmBaseLib.lib(AArch64Support.obj)
 .text.ArmReadVBar
                0x0000000000000000       0x30 /home/j0sh1x/Lg_G7_ThinQ_Edk2/edk2_LG_G7_THINQ/workspace/Build/LgG7ThinQPkg/DEBUG_GCC5/AARCH64/ArmPkg/Library/ArmLib/ArmBaseLib/OUTPUT/ArmBaseLib.lib(AArch64Support.obj)
 .text.ArmEnableVFP
                0x0000000000000000       0x64 /home/j0sh1x/Lg_G7_ThinQ_Edk2/edk2_LG_G7_THINQ/workspace/Build/LgG7ThinQPkg/DEBUG_GCC5/AARCH64/ArmPkg/Library/ArmLib/ArmBaseLib/OUTPUT/ArmBaseLib.lib(AArch64Support.obj)
 .text.ArmCallWFI
                0x0000000000000000        0x8 /home/j0sh1x/Lg_G7_ThinQ_Edk2/edk2_LG_G7_THINQ/workspace/Build/LgG7ThinQPkg/DEBUG_GCC5/AARCH64/ArmPkg/Library/ArmLib/ArmBaseLib/OUTPUT/ArmBaseLib.lib(AArch64Support.obj)
 .text.ArmReadMpidr
                0x0000000000000000        0x8 /home/j0sh1x/Lg_G7_ThinQ_Edk2/edk2_LG_G7_THINQ/workspace/Build/LgG7ThinQPkg/DEBUG_GCC5/AARCH64/ArmPkg/Library/ArmLib/ArmBaseLib/OUTPUT/ArmBaseLib.lib(AArch64Support.obj)
 .text.ArmReadTpidrurw
                0x0000000000000000        0x8 /home/j0sh1x/Lg_G7_ThinQ_Edk2/edk2_LG_G7_THINQ/workspace/Build/LgG7ThinQPkg/DEBUG_GCC5/AARCH64/ArmPkg/Library/ArmLib/ArmBaseLib/OUTPUT/ArmBaseLib.lib(AArch64Support.obj)
 .text.ArmWriteTpidrurw
                0x0000000000000000        0x8 /home/j0sh1x/Lg_G7_ThinQ_Edk2/edk2_LG_G7_THINQ/workspace/Build/LgG7ThinQPkg/DEBUG_GCC5/AARCH64/ArmPkg/Library/ArmLib/ArmBaseLib/OUTPUT/ArmBaseLib.lib(AArch64Support.obj)
 .text.ArmIsArchTimerImplemented
                0x0000000000000000        0x8 /home/j0sh1x/Lg_G7_ThinQ_Edk2/edk2_LG_G7_THINQ/workspace/Build/LgG7ThinQPkg/DEBUG_GCC5/AARCH64/ArmPkg/Library/ArmLib/ArmBaseLib/OUTPUT/ArmBaseLib.lib(AArch64Support.obj)
 .text.ArmReadIdPfr0
                0x0000000000000000        0x8 /home/j0sh1x/Lg_G7_ThinQ_Edk2/edk2_LG_G7_THINQ/workspace/Build/LgG7ThinQPkg/DEBUG_GCC5/AARCH64/ArmPkg/Library/ArmLib/ArmBaseLib/OUTPUT/ArmBaseLib.lib(AArch64Support.obj)
 .text.ArmReadIdPfr1
                0x0000000000000000        0x8 /home/j0sh1x/Lg_G7_ThinQ_Edk2/edk2_LG_G7_THINQ/workspace/Build/LgG7ThinQPkg/DEBUG_GCC5/AARCH64/ArmPkg/Library/ArmLib/ArmBaseLib/OUTPUT/ArmBaseLib.lib(AArch64Support.obj)
 .text.ArmWriteHcr
                0x0000000000000000        0x8 /home/j0sh1x/Lg_G7_ThinQ_Edk2/edk2_LG_G7_THINQ/workspace/Build/LgG7ThinQPkg/DEBUG_GCC5/AARCH64/ArmPkg/Library/ArmLib/ArmBaseLib/OUTPUT/ArmBaseLib.lib(AArch64Support.obj)
 .text.ArmReadHcr
                0x0000000000000000        0x8 /home/j0sh1x/Lg_G7_ThinQ_Edk2/edk2_LG_G7_THINQ/workspace/Build/LgG7ThinQPkg/DEBUG_GCC5/AARCH64/ArmPkg/Library/ArmLib/ArmBaseLib/OUTPUT/ArmBaseLib.lib(AArch64Support.obj)
 .text.ArmReadCurrentEL
                0x0000000000000000        0x8 /home/j0sh1x/Lg_G7_ThinQ_Edk2/edk2_LG_G7_THINQ/workspace/Build/LgG7ThinQPkg/DEBUG_GCC5/AARCH64/ArmPkg/Library/ArmLib/ArmBaseLib/OUTPUT/ArmBaseLib.lib(AArch64Support.obj)
 .text.ArmReadCntHctl
                0x0000000000000000        0x8 /home/j0sh1x/Lg_G7_ThinQ_Edk2/edk2_LG_G7_THINQ/workspace/Build/LgG7ThinQPkg/DEBUG_GCC5/AARCH64/ArmPkg/Library/ArmLib/ArmBaseLib/OUTPUT/ArmBaseLib.lib(AArch64Support.obj)
 .text.ArmWriteCntHctl
                0x0000000000000000        0x8 /home/j0sh1x/Lg_G7_ThinQ_Edk2/edk2_LG_G7_THINQ/workspace/Build/LgG7ThinQPkg/DEBUG_GCC5/AARCH64/ArmPkg/Library/ArmLib/ArmBaseLib/OUTPUT/ArmBaseLib.lib(AArch64Support.obj)

Speicherkonfiguration

Name             Ursprung           Lnge             Attribute
*default*        0x0000000000000000 0xffffffffffffffff

Linker script and memory map

LOAD /home/j0sh1x/Lg_G7_ThinQ_Edk2/edk2/ArmPkg/Library/GccLto/liblto-aarch64.a
START GROUP
LOAD /tmp/UiApp.dll.XMj2sU.ltrans0.ltrans.o
LOAD /tmp/UiApp.dll.XMj2sU.ltrans1.ltrans.o
LOAD /tmp/UiApp.dll.XMj2sU.ltrans2.ltrans.o
LOAD /tmp/ccXLiP8S.debug.temp.o
LOAD /tmp/ccHI6sZU.debug.temp.o
LOAD /tmp/ccbZWGAS.debug.temp.o
LOAD /tmp/ccjj85FU.debug.temp.o
LOAD /tmp/ccvZjDvR.debug.temp.o
LOAD /tmp/ccdkOiRQ.debug.temp.o
LOAD /tmp/ccgCqmwU.debug.temp.o
LOAD /tmp/ccPsHtGU.debug.temp.o
LOAD /tmp/ccS6TKZU.debug.temp.o
LOAD /tmp/cc66O6fR.debug.temp.o
LOAD /tmp/ccXlCKRU.debug.temp.o
LOAD /tmp/ccaPmWDQ.debug.temp.o
LOAD /tmp/cccZLibS.debug.temp.o
LOAD /tmp/ccWZsIWU.debug.temp.o
LOAD /tmp/ccm2PzcV.debug.temp.o
LOAD /tmp/ccceNeTU.debug.temp.o
LOAD /tmp/ccW9ed8S.debug.temp.o
LOAD /tmp/ccm31qhR.debug.temp.o
LOAD /tmp/ccte6NFR.debug.temp.o
LOAD /tmp/cc58XuXQ.debug.temp.o
LOAD /tmp/ccJJN2YR.debug.temp.o
LOAD /tmp/ccJmC5ST.debug.temp.o
LOAD /tmp/ccTwufMT.debug.temp.o
LOAD /tmp/ccOuQ4KT.debug.temp.o
LOAD /tmp/ccM2xJwU.debug.temp.o
LOAD /tmp/cczy6ObT.debug.temp.o
LOAD /tmp/ccFcJpRR.debug.temp.o
LOAD /tmp/ccXG1aHR.debug.temp.o
LOAD /tmp/ccsmktNQ.debug.temp.o
LOAD /tmp/ccjGG10Q.debug.temp.o
LOAD /tmp/ccEM87ZS.debug.temp.o
LOAD /tmp/ccPo6V8U.debug.temp.o
LOAD /tmp/ccBuBGiU.debug.temp.o
LOAD /tmp/ccBpDpES.debug.temp.o
LOAD /tmp/ccrdz0RS.debug.temp.o
LOAD /tmp/ccekzuFS.debug.temp.o
LOAD /tmp/ccYslnBT.debug.temp.o
LOAD /tmp/cc0LOACS.debug.temp.o
LOAD /tmp/ccEskqoR.debug.temp.o
LOAD /tmp/ccHeV3DT.debug.temp.o
LOAD /tmp/cc2mNBZT.debug.temp.o
LOAD /tmp/ccS0JqQT.debug.temp.o
LOAD /tmp/cc8peQEQ.debug.temp.o
LOAD /tmp/ccyMiI0S.debug.temp.o
LOAD /tmp/cc2WlFER.debug.temp.o
LOAD /tmp/ccLojDwR.debug.temp.o
LOAD /tmp/ccbgtkuR.debug.temp.o
LOAD /tmp/ccw2XMyR.debug.temp.o
LOAD /tmp/ccScQ5TT.debug.temp.o
LOAD /tmp/cck1YTvR.debug.temp.o
LOAD /tmp/ccpMjIOQ.debug.temp.o
LOAD /tmp/ccv4Zh4S.debug.temp.o
LOAD /tmp/ccJEni1T.debug.temp.o
LOAD /tmp/ccCsTHgT.debug.temp.o
LOAD /tmp/ccV91cCT.debug.temp.o
LOAD /tmp/cc2HUEyU.debug.temp.o
LOAD /tmp/cce1JztT.debug.temp.o
LOAD /tmp/ccrFTh4U.debug.temp.o
LOAD /tmp/ccInoOOQ.debug.temp.o
LOAD /tmp/cc2chVAS.debug.temp.o
LOAD /tmp/ccO4li8S.debug.temp.o
LOAD /tmp/ccSZCavR.debug.temp.o
LOAD /tmp/ccewbZ9R.debug.temp.o
LOAD /tmp/ccetwARS.debug.temp.o
LOAD /tmp/ccAREOzT.debug.temp.o
LOAD /tmp/ccpEIRxU.debug.temp.o
LOAD /tmp/ccTCICPS.debug.temp.o
LOAD /tmp/ccqutFuR.debug.temp.o
LOAD /tmp/ccIYQUNR.debug.temp.o
LOAD /tmp/ccTw1qWQ.debug.temp.o
LOAD /tmp/ccAwWaIQ.debug.temp.o
LOAD /tmp/ccjRYKcR.debug.temp.o
LOAD /tmp/ccPe9rXU.debug.temp.o
LOAD /tmp/cca5TRcU.debug.temp.o
LOAD /tmp/ccKnqrhT.debug.temp.o
LOAD /tmp/ccb82HeS.debug.temp.o
LOAD /tmp/cc6y9yIS.debug.temp.o
LOAD /tmp/ccEZFS4R.debug.temp.o
LOAD /tmp/ccWi2E2R.debug.temp.o
LOAD /tmp/ccMkDz1R.debug.temp.o
LOAD /tmp/ccgHvdYR.debug.temp.o
LOAD /tmp/cc9Q5zIU.debug.temp.o
LOAD /tmp/ccPjCGAU.debug.temp.o
LOAD /tmp/cc9cQLlR.debug.temp.o
LOAD /tmp/ccpY3HmT.debug.temp.o
LOAD /tmp/ccPgV1IS.debug.temp.o
LOAD /tmp/ccAZHEoS.debug.temp.o
LOAD /tmp/ccTnPpwU.debug.temp.o
LOAD /tmp/ccWXLb3R.debug.temp.o
LOAD /tmp/ccvl1Y7U.debug.temp.o
LOAD /tmp/ccUGi1pS.debug.temp.o
LOAD /tmp/ccaWLOnS.debug.temp.o
LOAD /home/j0sh1x/Lg_G7_ThinQ_Edk2/edk2_LG_G7_THINQ/workspace/Build/LgG7ThinQPkg/DEBUG_GCC5/AARCH64/MdePkg/Library/DxePcdLib/DxePcdLib/OUTPUT/DxePcdLib.lib
LOAD /home/j0sh1x/Lg_G7_ThinQ_Edk2/edk2_LG_G7_THINQ/workspace/Build/LgG7ThinQPkg/DEBUG_GCC5/AARCH64/MdePkg/Library/BaseMemoryLibOptDxe/BaseMemoryLibOptDxe/OUTPUT/BaseMemoryLibOptDxe.lib
LOAD /home/j0sh1x/Lg_G7_ThinQ_Edk2/edk2_LG_G7_THINQ/workspace/Build/LgG7ThinQPkg/DEBUG_GCC5/AARCH64/MdePkg/Library/BaseLib/BaseLib/OUTPUT/BaseLib.lib
LOAD /home/j0sh1x/Lg_G7_ThinQ_Edk2/edk2_LG_G7_THINQ/workspace/Build/LgG7ThinQPkg/DEBUG_GCC5/AARCH64/ArmPkg/Library/ArmLib/ArmBaseLib/OUTPUT/ArmBaseLib.lib
LOAD /home/j0sh1x/Lg_G7_ThinQ_Edk2/edk2_LG_G7_THINQ/workspace/Build/LgG7ThinQPkg/DEBUG_GCC5/AARCH64/ArmPkg/Library/ArmCacheMaintenanceLib/ArmCacheMaintenanceLib/OUTPUT/ArmCacheMaintenanceLib.lib
LOAD /home/j0sh1x/Lg_G7_ThinQ_Edk2/edk2_LG_G7_THINQ/workspace/Build/LgG7ThinQPkg/DEBUG_GCC5/AARCH64/MdePkg/Library/BaseIoLibIntrinsic/BaseIoLibIntrinsic/OUTPUT/BaseIoLibIntrinsic.lib
LOAD /home/j0sh1x/Lg_G7_ThinQ_Edk2/edk2_LG_G7_THINQ/workspace/Build/LgG7ThinQPkg/DEBUG_GCC5/AARCH64/ArmPkg/Library/CompilerIntrinsicsLib/CompilerIntrinsicsLib/OUTPUT/CompilerIntrinsicsLib.lib
LOAD /home/j0sh1x/Lg_G7_ThinQ_Edk2/edk2_LG_G7_THINQ/workspace/Build/LgG7ThinQPkg/DEBUG_GCC5/AARCH64/MdePkg/Library/BaseDebugPrintErrorLevelLib/BaseDebugPrintErrorLevelLib/OUTPUT/BaseDebugPrintErrorLevelLib.lib
LOAD /home/j0sh1x/Lg_G7_ThinQ_Edk2/edk2_LG_G7_THINQ/workspace/Build/LgG7ThinQPkg/DEBUG_GCC5/AARCH64/LgG7ThinQPkg/Library/FrameBufferSerialPortLib/FrameBufferSerialPortLib/OUTPUT/FrameBufferSerialPortLib.lib
LOAD /home/j0sh1x/Lg_G7_ThinQ_Edk2/edk2_LG_G7_THINQ/workspace/Build/LgG7ThinQPkg/DEBUG_GCC5/AARCH64/MdePkg/Library/BasePrintLib/BasePrintLib/OUTPUT/BasePrintLib.lib
LOAD /home/j0sh1x/Lg_G7_ThinQ_Edk2/edk2_LG_G7_THINQ/workspace/Build/LgG7ThinQPkg/DEBUG_GCC5/AARCH64/MdePkg/Library/BaseDebugLibSerialPort/BaseDebugLibSerialPort/OUTPUT/BaseDebugLibSerialPort.lib
LOAD /home/j0sh1x/Lg_G7_ThinQ_Edk2/edk2_LG_G7_THINQ/workspace/Build/LgG7ThinQPkg/DEBUG_GCC5/AARCH64/MdePkg/Library/UefiMemoryAllocationLib/UefiMemoryAllocationLib/OUTPUT/UefiMemoryAllocationLib.lib
LOAD /home/j0sh1x/Lg_G7_ThinQ_Edk2/edk2_LG_G7_THINQ/workspace/Build/LgG7ThinQPkg/DEBUG_GCC5/AARCH64/MdePkg/Library/UefiBootServicesTableLib/UefiBootServicesTableLib/OUTPUT/UefiBootServicesTableLib.lib
LOAD /home/j0sh1x/Lg_G7_ThinQ_Edk2/edk2_LG_G7_THINQ/workspace/Build/LgG7ThinQPkg/DEBUG_GCC5/AARCH64/MdePkg/Library/UefiRuntimeServicesTableLib/UefiRuntimeServicesTableLib/OUTPUT/UefiRuntimeServicesTableLib.lib
LOAD /home/j0sh1x/Lg_G7_ThinQ_Edk2/edk2_LG_G7_THINQ/workspace/Build/LgG7ThinQPkg/DEBUG_GCC5/AARCH64/MdePkg/Library/UefiDevicePathLib/UefiDevicePathLib/OUTPUT/UefiDevicePathLib.lib
LOAD /home/j0sh1x/Lg_G7_ThinQ_Edk2/edk2_LG_G7_THINQ/workspace/Build/LgG7ThinQPkg/DEBUG_GCC5/AARCH64/MdePkg/Library/UefiLib/UefiLib/OUTPUT/UefiLib.lib
LOAD /home/j0sh1x/Lg_G7_ThinQ_Edk2/edk2_LG_G7_THINQ/workspace/Build/LgG7ThinQPkg/DEBUG_GCC5/AARCH64/MdePkg/Library/DxeHobLib/DxeHobLib/OUTPUT/DxeHobLib.lib
LOAD /home/j0sh1x/Lg_G7_ThinQ_Edk2/edk2_LG_G7_THINQ/workspace/Build/LgG7ThinQPkg/DEBUG_GCC5/AARCH64/MdeModulePkg/Library/UefiHiiServicesLib/UefiHiiServicesLib/OUTPUT/UefiHiiServicesLib.lib
LOAD /home/j0sh1x/Lg_G7_ThinQ_Edk2/edk2_LG_G7_THINQ/workspace/Build/LgG7ThinQPkg/DEBUG_GCC5/AARCH64/MdeModulePkg/Library/UefiSortLib/UefiSortLib/OUTPUT/UefiSortLib.lib
LOAD /home/j0sh1x/Lg_G7_ThinQ_Edk2/edk2_LG_G7_THINQ/workspace/Build/LgG7ThinQPkg/DEBUG_GCC5/AARCH64/MdePkg/Library/DxeServicesLib/DxeServicesLib/OUTPUT/DxeServicesLib.lib
LOAD /home/j0sh1x/Lg_G7_ThinQ_Edk2/edk2_LG_G7_THINQ/workspace/Build/LgG7ThinQPkg/DEBUG_GCC5/AARCH64/MdePkg/Library/DxeServicesTableLib/DxeServicesTableLib/OUTPUT/DxeServicesTableLib.lib
LOAD /home/j0sh1x/Lg_G7_ThinQ_Edk2/edk2_LG_G7_THINQ/workspace/Build/LgG7ThinQPkg/DEBUG_GCC5/AARCH64/MdePkg/Library/BasePeCoffGetEntryPointLib/BasePeCoffGetEntryPointLib/OUTPUT/BasePeCoffGetEntryPointLib.lib
LOAD /home/j0sh1x/Lg_G7_ThinQ_Edk2/edk2_LG_G7_THINQ/workspace/Build/LgG7ThinQPkg/DEBUG_GCC5/AARCH64/MdeModulePkg/Library/DxePerformanceLib/DxePerformanceLib/OUTPUT/DxePerformanceLib.lib
LOAD /home/j0sh1x/Lg_G7_ThinQ_Edk2/edk2_LG_G7_THINQ/workspace/Build/LgG7ThinQPkg/DEBUG_GCC5/AARCH64/MdeModulePkg/Library/UefiHiiLib/UefiHiiLib/OUTPUT/UefiHiiLib.lib
LOAD /home/j0sh1x/Lg_G7_ThinQ_Edk2/edk2_LG_G7_THINQ/workspace/Build/LgG7ThinQPkg/DEBUG_GCC5/AARCH64/MdeModulePkg/Library/DxeReportStatusCodeLib/DxeReportStatusCodeLib/OUTPUT/DxeReportStatusCodeLib.lib
LOAD /home/j0sh1x/Lg_G7_ThinQ_Edk2/edk2_LG_G7_THINQ/workspace/Build/LgG7ThinQPkg/DEBUG_GCC5/AARCH64/MdeModulePkg/Library/UefiBootManagerLib/UefiBootManagerLib/OUTPUT/UefiBootManagerLib.lib
LOAD /home/j0sh1x/Lg_G7_ThinQ_Edk2/edk2_LG_G7_THINQ/workspace/Build/LgG7ThinQPkg/DEBUG_GCC5/AARCH64/MdeModulePkg/Library/FileExplorerLib/FileExplorerLib/OUTPUT/FileExplorerLib.lib
LOAD /home/j0sh1x/Lg_G7_ThinQ_Edk2/edk2_LG_G7_THINQ/workspace/Build/LgG7ThinQPkg/DEBUG_GCC5/AARCH64/MdePkg/Library/UefiApplicationEntryPoint/UefiApplicationEntryPoint/OUTPUT/UefiApplicationEntryPoint.lib
LOAD /home/j0sh1x/Lg_G7_ThinQ_Edk2/edk2_LG_G7_THINQ/workspace/Build/LgG7ThinQPkg/DEBUG_GCC5/AARCH64/MdePkg/Library/BaseStackCheckLib/BaseStackCheckLib/OUTPUT/BaseStackCheckLib.lib
LOAD /home/j0sh1x/Lg_G7_ThinQ_Edk2/edk2_LG_G7_THINQ/workspace/Build/LgG7ThinQPkg/DEBUG_GCC5/AARCH64/MdeModulePkg/Library/DeviceManagerUiLib/DeviceManagerUiLib/OUTPUT/DeviceManagerUiLib.lib
LOAD /home/j0sh1x/Lg_G7_ThinQ_Edk2/edk2_LG_G7_THINQ/workspace/Build/LgG7ThinQPkg/DEBUG_GCC5/AARCH64/MdeModulePkg/Library/BootManagerUiLib/BootManagerUiLib/OUTPUT/BootManagerUiLib.lib
LOAD /home/j0sh1x/Lg_G7_ThinQ_Edk2/edk2_LG_G7_THINQ/workspace/Build/LgG7ThinQPkg/DEBUG_GCC5/AARCH64/MdeModulePkg/Library/BootMaintenanceManagerUiLib/BootMaintenanceManagerUiLib/OUTPUT/BootMaintenanceManagerUiLib.lib
LOAD /home/j0sh1x/Lg_G7_ThinQ_Edk2/edk2_LG_G7_THINQ/workspace/Build/LgG7ThinQPkg/DEBUG_GCC5/AARCH64/MdeModulePkg/Application/UiApp/UiApp/OUTPUT/UiApp.lib
END GROUP
                0x0000000000000228                . = PECOFF_HEADER_SIZE

.gnu.version_d  0x0000000000000228        0x0
 .gnu.version_d
                0x0000000000000228        0x0 /home/j0sh1x/Lg_G7_ThinQ_Edk2/edk2/ArmPkg/Library/GccLto/liblto-aarch64.a

.gnu.version    0x0000000000000228        0x0
 .gnu.version   0x0000000000000228        0x0 /home/j0sh1x/Lg_G7_ThinQ_Edk2/edk2/ArmPkg/Library/GccLto/liblto-aarch64.a

.gnu.version_r  0x0000000000000228        0x0
 .gnu.version_r
                0x0000000000000228        0x0 /home/j0sh1x/Lg_G7_ThinQ_Edk2/edk2/ArmPkg/Library/GccLto/liblto-aarch64.a

.text           0x0000000000001000    0x209b0
 *(.text .text.* .stub .gnu.linkonce.t.*)
 .text.EfiLibDeleteVariable.constprop.0
                0x0000000000001000       0x28 /tmp/UiApp.dll.XMj2sU.ltrans0.ltrans.o
 .text.CleanUselessBeforeSubmit
                0x0000000000001028       0xa0 /tmp/UiApp.dll.XMj2sU.ltrans0.ltrans.o
 .text.BootManagerExtractConfig
                0x00000000000010c8       0x24 /tmp/UiApp.dll.XMj2sU.ltrans0.ltrans.o
 .text.DeviceManagerExtractConfig
                0x00000000000010ec       0x24 /tmp/UiApp.dll.XMj2sU.ltrans0.ltrans.o
 .text.InternalBaseLibIsListValid
                0x0000000000001110       0xac /tmp/UiApp.dll.XMj2sU.ltrans0.ltrans.o
 .text.InternalHiiBrowserCallback.constprop.0
                0x00000000000011bc      0x138 /tmp/UiApp.dll.XMj2sU.ltrans0.ltrans.o
 .text.BOpt_DestroyMenuEntry
                0x00000000000012f4       0xd4 /tmp/UiApp.dll.XMj2sU.ltrans0.ltrans.o
 .text.BmmSetConsoleMode
                0x00000000000013c8      0x414 /tmp/UiApp.dll.XMj2sU.ltrans0.ltrans.o
 .text.BmSetConsoleMode
                0x00000000000017dc      0x414 /tmp/UiApp.dll.XMj2sU.ltrans0.ltrans.o
 .text.BOpt_GetOptionNumber
                0x0000000000001bf0      0x134 /tmp/UiApp.dll.XMj2sU.ltrans0.ltrans.o
 .text.StrnCatS.constprop.0
                0x0000000000001d24      0x178 /tmp/UiApp.dll.XMj2sU.ltrans0.ltrans.o
 .text.HiiConstructConfigHdr.constprop.0
                0x0000000000001e9c      0x210 /tmp/UiApp.dll.XMj2sU.ltrans0.ltrans.o
 .text.HiiIsConfigHdrMatch.constprop.0
                0x00000000000020ac       0xb4 /tmp/UiApp.dll.XMj2sU.ltrans0.ltrans.o
 .text.SetMem.constprop.0
                0x0000000000002160       0x48 /tmp/UiApp.dll.XMj2sU.ltrans0.ltrans.o
 .text.FbConFlush
                0x00000000000021a8       0x54 /tmp/UiApp.dll.XMj2sU.ltrans0.ltrans.o
 .text.SetMem16
                0x00000000000021fc       0xa0 /tmp/UiApp.dll.XMj2sU.ltrans0.ltrans.o
 .text.BootMaintExtractConfig
                0x000000000000229c      0x1b4 /tmp/UiApp.dll.XMj2sU.ltrans0.ltrans.o
 .text.BootManagerRouteConfig
                0x0000000000002450        0x4 /tmp/UiApp.dll.XMj2sU.ltrans0.ltrans.o
 .text.DeviceManagerRouteConfig
                0x0000000000002454        0x4 /tmp/UiApp.dll.XMj2sU.ltrans0.ltrans.o
 .text.InternalAllocatePool.constprop.0
                0x0000000000002458       0x68 /tmp/UiApp.dll.XMj2sU.ltrans0.ltrans.o
                0x0000000000002458                InternalAllocatePool.constprop.0
 .text.CreatePopUp.constprop.0
                0x00000000000024c0      0x520 /tmp/UiApp.dll.XMj2sU.ltrans0.ltrans.o
                0x00000000000024c0                CreatePopUp.constprop.0
 .text.HiiSetString.constprop.0
                0x00000000000029e0      0x160 /tmp/UiApp.dll.XMj2sU.ltrans0.ltrans.o
                0x00000000000029e0                HiiSetString.constprop.0
 .text.HiiGetString.constprop.0
                0x0000000000002b40      0x1ac /tmp/UiApp.dll.XMj2sU.ltrans0.ltrans.o
                0x0000000000002b40                HiiGetString.constprop.0
 .text.HiiGetHiiHandles.constprop.0
                0x0000000000002cec       0xc4 /tmp/UiApp.dll.XMj2sU.ltrans0.ltrans.o
                0x0000000000002cec                HiiGetHiiHandles.constprop.0
 .text.EfiBootManagerAddLoadOptionVariable.constprop.0
                0x0000000000002db0      0x208 /tmp/UiApp.dll.XMj2sU.ltrans0.ltrans.o
                0x0000000000002db0                EfiBootManagerAddLoadOptionVariable.constprop.0
 .text.EfiBootManagerGetLoadOptions.part.0.constprop.0
                0x0000000000002fb8      0x1f4 /tmp/UiApp.dll.XMj2sU.ltrans0.ltrans.o
                0x0000000000002fb8                EfiBootManagerGetLoadOptions.part.0.constprop.0
 .text.LogPerformanceMeasurementEnabled.constprop.0
                0x00000000000031ac        0x8 /tmp/UiApp.dll.XMj2sU.ltrans0.ltrans.o
                0x00000000000031ac                LogPerformanceMeasurementEnabled.constprop.0
 .text.IsZeroGuid.constprop.0
                0x00000000000031b4       0x10 /tmp/UiApp.dll.XMj2sU.ltrans0.ltrans.o
                0x00000000000031b4                IsZeroGuid.constprop.0
 .text.MultU64x32.constprop.0
                0x00000000000031c4        0xc /tmp/UiApp.dll.XMj2sU.ltrans0.ltrans.o
                0x00000000000031c4                MultU64x32.constprop.0
 .text.LShiftU64.constprop.0
                0x00000000000031d0        0x8 /tmp/UiApp.dll.XMj2sU.ltrans0.ltrans.o
                0x00000000000031d0                LShiftU64.constprop.0
 .text.EfiAcquireLock.constprop.0
                0x00000000000031d8       0x70 /tmp/UiApp.dll.XMj2sU.ltrans0.ltrans.o
                0x00000000000031d8                EfiAcquireLock.constprop.0
 .text.EfiReleaseLock.constprop.0
                0x0000000000003248       0x6c /tmp/UiApp.dll.XMj2sU.ltrans0.ltrans.o
                0x0000000000003248                EfiReleaseLock.constprop.0
 .text.ReportStatusCodeEx.constprop.0
                0x00000000000032b4      0x224 /tmp/UiApp.dll.XMj2sU.ltrans0.ltrans.o
                0x00000000000032b4                ReportStatusCodeEx.constprop.0
 .text.IsZeroBuffer.constprop.0
                0x00000000000034d8       0x60 /tmp/UiApp.dll.XMj2sU.ltrans0.ltrans.o
                0x00000000000034d8                IsZeroBuffer.constprop.0
 .text.GetPerformanceMeasurementProtocol
                0x0000000000003538       0xb4 /tmp/UiApp.dll.XMj2sU.ltrans0.ltrans.o
                0x0000000000003538                GetPerformanceMeasurementProtocol
 .text.LogPerformanceMeasurement.constprop.0
                0x00000000000035ec       0xac /tmp/UiApp.dll.XMj2sU.ltrans0.ltrans.o
                0x00000000000035ec                LogPerformanceMeasurement.constprop.0
 .text.EndPerformanceMeasurementEx.constprop.0
                0x0000000000003698       0xac /tmp/UiApp.dll.XMj2sU.ltrans0.ltrans.o
                0x0000000000003698                EndPerformanceMeasurementEx.constprop.0
 .text.EfiGetNameGuidFromFwVolDevicePathNode
                0x0000000000003744       0x78 /tmp/UiApp.dll.XMj2sU.ltrans0.ltrans.o
                0x0000000000003744                EfiGetNameGuidFromFwVolDevicePathNode
 .text.Print    0x00000000000037bc      0x18c /tmp/UiApp.dll.XMj2sU.ltrans0.ltrans.o
                0x00000000000037bc                Print
 .text.SerialPortWrite
                0x0000000000003948      0x3fc /tmp/UiApp.dll.XMj2sU.ltrans0.ltrans.o
                0x0000000000003948                SerialPortWrite
 .text.WriteUnaligned16
                0x0000000000003d44       0x50 /tmp/UiApp.dll.XMj2sU.ltrans0.ltrans.o
                0x0000000000003d44                WriteUnaligned16
 .text.WriteUnaligned32
                0x0000000000003d94       0x58 /tmp/UiApp.dll.XMj2sU.ltrans0.ltrans.o
                0x0000000000003d94                WriteUnaligned32
 .text.ReadUnaligned16
                0x0000000000003dec       0x5c /tmp/UiApp.dll.XMj2sU.ltrans0.ltrans.o
                0x0000000000003dec                ReadUnaligned16
 .text.ReadUnaligned32
                0x0000000000003e48       0x50 /tmp/UiApp.dll.XMj2sU.ltrans0.ltrans.o
                0x0000000000003e48                ReadUnaligned32
 .text.BasePrintLibSPrintMarker.constprop.0
                0x0000000000003e98     0x101c /tmp/UiApp.dll.XMj2sU.ltrans0.ltrans.o
                0x0000000000003e98                BasePrintLibSPrintMarker.constprop.0
 .text.BasePrintLibSPrint.constprop.0
                0x0000000000004eb4       0x9c /tmp/UiApp.dll.XMj2sU.ltrans0.ltrans.o
 .text.AsciiSPrint.constprop.0
                0x0000000000004f50       0xa8 /tmp/UiApp.dll.XMj2sU.ltrans0.ltrans.o
                0x0000000000004f50                AsciiSPrint.constprop.0
 .text.ReadUnaligned64
                0x0000000000004ff8       0x38 /tmp/UiApp.dll.XMj2sU.ltrans0.ltrans.o
                0x0000000000004ff8                ReadUnaligned64
 .text.IsNull   0x0000000000005030       0x4c /tmp/UiApp.dll.XMj2sU.ltrans0.ltrans.o
                0x0000000000005030                IsNull
 .text.IsListEmpty
                0x000000000000507c       0x4c /tmp/UiApp.dll.XMj2sU.ltrans0.ltrans.o
                0x000000000000507c                IsListEmpty
 .text.RemoveEntryList
                0x00000000000050c8       0x50 /tmp/UiApp.dll.XMj2sU.ltrans0.ltrans.o
                0x00000000000050c8                RemoveEntryList
 .text.GetNextNode
                0x0000000000005118       0x44 /tmp/UiApp.dll.XMj2sU.ltrans0.ltrans.o
                0x0000000000005118                GetNextNode
 .text.GetFirstNode
                0x000000000000515c       0x44 /tmp/UiApp.dll.XMj2sU.ltrans0.ltrans.o
                0x000000000000515c                GetFirstNode
 .text.InsertTailList
                0x00000000000051a0       0x5c /tmp/UiApp.dll.XMj2sU.ltrans0.ltrans.o
                0x00000000000051a0                InsertTailList
 .text.ChooseFile.constprop.0
                0x00000000000051fc      0x430 /tmp/UiApp.dll.XMj2sU.ltrans0.ltrans.o
 .text.InitializeListHead
                0x000000000000562c       0x40 /tmp/UiApp.dll.XMj2sU.ltrans0.ltrans.o
                0x000000000000562c                InitializeListHead
 .text.CompareMem
                0x000000000000566c       0xd0 /tmp/UiApp.dll.XMj2sU.ltrans0.ltrans.o
                0x000000000000566c                CompareMem
 .text.ZeroMem  0x000000000000573c       0x70 /tmp/UiApp.dll.XMj2sU.ltrans0.ltrans.o
                0x000000000000573c                ZeroMem
 .text.HiiCreateActionOpCode.constprop.0
                0x00000000000057ac       0x98 /tmp/UiApp.dll.XMj2sU.ltrans0.ltrans.o
                0x00000000000057ac                HiiCreateActionOpCode.constprop.0
 .text.HiiCreateSubTitleOpCode.constprop.0
                0x0000000000005844       0x88 /tmp/UiApp.dll.XMj2sU.ltrans0.ltrans.o
                0x0000000000005844                HiiCreateSubTitleOpCode.constprop.0
 .text.UpdatePageEnd
                0x00000000000058cc       0x7c /tmp/UiApp.dll.XMj2sU.ltrans0.ltrans.o
 .text.HiiCreateGotoExOpCode.constprop.0
                0x0000000000005948       0xc4 /tmp/UiApp.dll.XMj2sU.ltrans0.ltrans.o
                0x0000000000005948                HiiCreateGotoExOpCode.constprop.0
 .text.UefiDevicePathLibConvertDevicePathToText.constprop.0
                0x0000000000005a0c      0x15c /tmp/UiApp.dll.XMj2sU.ltrans0.ltrans.o
                0x0000000000005a0c                UefiDevicePathLibConvertDevicePathToText.constprop.0
 .text.HiiCreateOneOfOpCode.constprop.0
                0x0000000000005b68      0x11c /tmp/UiApp.dll.XMj2sU.ltrans0.ltrans.o
                0x0000000000005b68                HiiCreateOneOfOpCode.constprop.0
 .text.HiiCreateGuidOpCode.constprop.0
                0x0000000000005c84       0x7c /tmp/UiApp.dll.XMj2sU.ltrans0.ltrans.o
                0x0000000000005c84                HiiCreateGuidOpCode.constprop.0
 .text.RefreshUpdateData
                0x0000000000005d00       0x44 /tmp/UiApp.dll.XMj2sU.ltrans0.ltrans.o
 .text.CleanUpPage
                0x0000000000005d44       0x50 /tmp/UiApp.dll.XMj2sU.ltrans0.ltrans.o
 .text.UpdatePageStart
                0x0000000000005d94       0x60 /tmp/UiApp.dll.XMj2sU.ltrans0.ltrans.o
 .text.BootManagerCallback
                0x0000000000005df4      0x82c /tmp/UiApp.dll.XMj2sU.ltrans0.ltrans.o
 .text.HiiCreateCheckBoxOpCode.constprop.0
                0x0000000000006620       0xb4 /tmp/UiApp.dll.XMj2sU.ltrans0.ltrans.o
 .text.RequiredDriver
                0x00000000000066d4      0x130 /tmp/UiApp.dll.XMj2sU.ltrans0.ltrans.o
                0x00000000000066d4                RequiredDriver
 .text.GetConsoleOutMode
                0x0000000000006804       0xd4 /tmp/UiApp.dll.XMj2sU.ltrans0.ltrans.o
                0x0000000000006804                GetConsoleOutMode
 .text.IsIsaSerialNode
                0x00000000000068d8       0x60 /tmp/UiApp.dll.XMj2sU.ltrans0.ltrans.o
                0x00000000000068d8                IsIsaSerialNode
 .text.RetrieveUartUid
                0x0000000000006938       0xf0 /tmp/UiApp.dll.XMj2sU.ltrans0.ltrans.o
                0x0000000000006938                RetrieveUartUid
 .text.BmMatchDevicePaths
                0x0000000000006a28       0xa4 /tmp/UiApp.dll.XMj2sU.ltrans0.ltrans.o
                0x0000000000006a28                BmMatchDevicePaths
                0x0000000000006a28                MatchDevicePaths
 .text.BOpt_FreeMenu
                0x0000000000006acc       0xa0 /tmp/UiApp.dll.XMj2sU.ltrans0.ltrans.o
                0x0000000000006acc                BOpt_FreeMenu
 .text.BOpt_GetMenuEntry
                0x0000000000006b6c       0xb0 /tmp/UiApp.dll.XMj2sU.ltrans0.ltrans.o
                0x0000000000006b6c                BOpt_GetMenuEntry
 .text.UpdateConsolePage
                0x0000000000006c1c      0x24c /tmp/UiApp.dll.XMj2sU.ltrans0.ltrans.o
 .text.UpdateComAttributeFromVariable
                0x0000000000006e68      0x1e8 /tmp/UiApp.dll.XMj2sU.ltrans0.ltrans.o
                0x0000000000006e68                UpdateComAttributeFromVariable
 .text.ChangeTerminalDevicePath
                0x0000000000007050      0x1c4 /tmp/UiApp.dll.XMj2sU.ltrans0.ltrans.o
 .text.Var_UpdateConsoleOption
                0x0000000000007214      0x230 /tmp/UiApp.dll.XMj2sU.ltrans0.ltrans.o
 .text.GetDriverOrder
                0x0000000000007444       0xdc /tmp/UiApp.dll.XMj2sU.ltrans0.ltrans.o
                0x0000000000007444                GetDriverOrder
 .text.GetBootOrder
                0x0000000000007520       0xdc /tmp/UiApp.dll.XMj2sU.ltrans0.ltrans.o
                0x0000000000007520                GetBootOrder
 .text.UpdateOrderPage
                0x00000000000075fc      0x264 /tmp/UiApp.dll.XMj2sU.ltrans0.ltrans.o
 .text.UpdatePageBody
                0x0000000000007860       0xb4 /tmp/UiApp.dll.XMj2sU.ltrans0.ltrans.o
 .text.UpdateConsoleContent
                0x0000000000007914      0x360 /tmp/UiApp.dll.XMj2sU.ltrans0.ltrans.o
 .text.BOpt_CreateMenuEntry
                0x0000000000007c74       0xac /tmp/UiApp.dll.XMj2sU.ltrans0.ltrans.o
                0x0000000000007c74                BOpt_CreateMenuEntry
 .text.UiDevicePathToStr
                0x0000000000007d20      0x10c /tmp/UiApp.dll.XMj2sU.ltrans0.ltrans.o
                0x0000000000007d20                UiDevicePathToStr
 .text.GetConsoleMenu
                0x0000000000007e2c      0x3cc /tmp/UiApp.dll.XMj2sU.ltrans0.ltrans.o
                0x0000000000007e2c                GetConsoleMenu
 .text.BOpt_GetDriverOptions
                0x00000000000081f8      0x298 /tmp/UiApp.dll.XMj2sU.ltrans0.ltrans.o
                0x00000000000081f8                BOpt_GetDriverOptions
 .text.BOpt_GetBootOptions
                0x0000000000008490      0x3e0 /tmp/UiApp.dll.XMj2sU.ltrans0.ltrans.o
                0x0000000000008490                BOpt_GetBootOptions
 .text.BootMaintCallback
                0x0000000000008870     0x1814 /tmp/UiApp.dll.XMj2sU.ltrans0.ltrans.o
 .text.BootMaintRouteConfig
                0x000000000000a084     0x10dc /tmp/UiApp.dll.XMj2sU.ltrans0.ltrans.o
 .text.ExtractFileNameFromDevicePath
                0x000000000000b160       0xb4 /tmp/UiApp.dll.XMj2sU.ltrans0.ltrans.o
 .text.ReSendForm
                0x000000000000b214      0x1c4 /tmp/UiApp.dll.XMj2sU.ltrans0.ltrans.o
 .text.CreateDriverOptionFromFile
                0x000000000000b3d8        0x8 /tmp/UiApp.dll.XMj2sU.ltrans0.ltrans.o
 .text.CreateBootOptionFromFile
                0x000000000000b3e0        0x8 /tmp/UiApp.dll.XMj2sU.ltrans0.ltrans.o
 .text.BootFromFile
                0x000000000000b3e8      0x1d8 /tmp/UiApp.dll.XMj2sU.ltrans0.ltrans.o
 .text.CreateDeviceManagerForm
                0x000000000000b5c0      0x618 /tmp/UiApp.dll.XMj2sU.ltrans0.ltrans.o
                0x000000000000b5c0                CreateDeviceManagerForm
 .text.DeviceManagerCallback
                0x000000000000bbd8       0xd8 /tmp/UiApp.dll.XMj2sU.ltrans0.ltrans.o
 .text.LibExtractConfig
                0x000000000000bcb0       0x24 /tmp/UiApp.dll.XMj2sU.ltrans1.ltrans.o
                0x000000000000bcb0                LibExtractConfig
 .text.BmEliminateExtraSpaces
                0x000000000000bcd4       0x44 /tmp/UiApp.dll.XMj2sU.ltrans1.ltrans.o
 .text.EfiBootManagerFreeDriverHealthInfo
                0x000000000000bd18       0x60 /tmp/UiApp.dll.XMj2sU.ltrans1.ltrans.o
 .text.BmConnectUsbShortFormDevicePath
                0x000000000000bd78      0x190 /tmp/UiApp.dll.XMj2sU.ltrans1.ltrans.o
 .text.LibGetMenuEntry
                0x000000000000bf08       0xb0 /tmp/UiApp.dll.XMj2sU.ltrans1.ltrans.o
 .text.EfiBootManagerConnectDevicePath
                0x000000000000bfb8      0x190 /tmp/UiApp.dll.XMj2sU.ltrans1.ltrans.o
 .text.LibGetDevicePath
                0x000000000000c148       0x58 /tmp/UiApp.dll.XMj2sU.ltrans1.ltrans.o
 .text.BmGetLoadFileDescription
                0x000000000000c1a0       0xe4 /tmp/UiApp.dll.XMj2sU.ltrans1.ltrans.o
 .text.LibAppendFileName
                0x000000000000c284      0x1c8 /tmp/UiApp.dll.XMj2sU.ltrans1.ltrans.o
 .text.LibCreateNewFile
                0x000000000000c44c      0x2c4 /tmp/UiApp.dll.XMj2sU.ltrans1.ltrans.o
 .text.BmGetUsbDescription
                0x000000000000c710      0x204 /tmp/UiApp.dll.XMj2sU.ltrans1.ltrans.o
 .text.BmGetNetworkDescription
                0x000000000000c914      0x34c /tmp/UiApp.dll.XMj2sU.ltrans1.ltrans.o
 .text.LibRouteConfig
                0x000000000000cc60        0x4 /tmp/UiApp.dll.XMj2sU.ltrans1.ltrans.o
                0x000000000000cc60                LibRouteConfig
 .text.BmPrintDp
                0x000000000000cc64       0x64 /tmp/UiApp.dll.XMj2sU.ltrans1.ltrans.o
 .text.BmGetSingleControllerHealthStatus
                0x000000000000ccc8      0x2c4 /tmp/UiApp.dll.XMj2sU.ltrans1.ltrans.o
 .text.EfiBootManagerGetDriverHealthInfo
                0x000000000000cf8c      0x28c /tmp/UiApp.dll.XMj2sU.ltrans1.ltrans.o
 .text.BmMatchPartitionDevicePathNode.part.0
                0x000000000000d218       0xc4 /tmp/UiApp.dll.XMj2sU.ltrans1.ltrans.o
 .text.BmDelPartMatchInstance
                0x000000000000d2dc      0x10c /tmp/UiApp.dll.XMj2sU.ltrans1.ltrans.o
 .text.EfiBootManagerFindLoadOption
                0x000000000000d3e8       0xc0 /tmp/UiApp.dll.XMj2sU.ltrans1.ltrans.o
 .text.BmExpandMediaDevicePath
                0x000000000000d4a8      0x304 /tmp/UiApp.dll.XMj2sU.ltrans1.ltrans.o
 .text.BmRepairNotify
                0x000000000000d7ac       0x6c /tmp/UiApp.dll.XMj2sU.ltrans1.ltrans.o
 .text.BmGetControllerName
                0x000000000000d818      0x154 /tmp/UiApp.dll.XMj2sU.ltrans1.ltrans.o
 .text.BmDisplayMessages
                0x000000000000d96c      0x128 /tmp/UiApp.dll.XMj2sU.ltrans1.ltrans.o
 .text.BmRepairAllControllers.part.0
                0x000000000000da94      0x400 /tmp/UiApp.dll.XMj2sU.ltrans1.ltrans.o
 .text.BmGetBootDescription
                0x000000000000de94      0x1b8 /tmp/UiApp.dll.XMj2sU.ltrans1.ltrans.o
 .text.EfiBootManagerIsValidLoadOptionVariableName.part.0
                0x000000000000e04c      0x10c /tmp/UiApp.dll.XMj2sU.ltrans1.ltrans.o
 .text.BmUpdateSystemTableConsole
                0x000000000000e158      0x1bc /tmp/UiApp.dll.XMj2sU.ltrans1.ltrans.o
 .text.BmGetMiscDescription
                0x000000000000e314      0x2a4 /tmp/UiApp.dll.XMj2sU.ltrans1.ltrans.o
 .text.BmGetNvmeDescription
                0x000000000000e5b8      0x24c /tmp/UiApp.dll.XMj2sU.ltrans1.ltrans.o
 .text.BmGetDescriptionFromDiskInfo
                0x000000000000e804      0x2e0 /tmp/UiApp.dll.XMj2sU.ltrans1.ltrans.o
 .text.BmIsBootManagerMenuFilePath
                0x000000000000eae4       0x8c /tmp/UiApp.dll.XMj2sU.ltrans1.ltrans.o
 .text.BmDestroyRamDisk
                0x000000000000eb70      0x278 /tmp/UiApp.dll.XMj2sU.ltrans1.ltrans.o
 .text.BmExpandLoadFile
                0x000000000000ede8      0x2a4 /tmp/UiApp.dll.XMj2sU.ltrans1.ltrans.o
 .text.BmGetRamDiskDevicePath
                0x000000000000f08c       0xf8 /tmp/UiApp.dll.XMj2sU.ltrans1.ltrans.o
 .text.EfiBootManagerConnectConsoleVariable.part.0
                0x000000000000f184      0x2e4 /tmp/UiApp.dll.XMj2sU.ltrans1.ltrans.o
 .text.BmCachePartitionDevicePath
                0x000000000000f468       0xcc /tmp/UiApp.dll.XMj2sU.ltrans1.ltrans.o
 .text.BmAdjustFvFilePath
                0x000000000000f534      0x1a0 /tmp/UiApp.dll.XMj2sU.ltrans1.ltrans.o
 .text.BmEndOfBdsPerfCode
                0x000000000000f6d4       0x30 /tmp/UiApp.dll.XMj2sU.ltrans1.ltrans.o
 .text.EfiBootManagerConnectAllDefaultConsoles
                0x000000000000f704      0x150 /tmp/UiApp.dll.XMj2sU.ltrans1.ltrans.o
 .text.IsMacAddressDevicePath
                0x000000000000f854      0x33c /tmp/UiApp.dll.XMj2sU.ltrans1.ltrans.o
                0x000000000000f854                IsMacAddressDevicePath
 .text.DmExtractDevicePathFromHiiHandle
                0x000000000000fb90       0xac /tmp/UiApp.dll.XMj2sU.ltrans1.ltrans.o
                0x000000000000fb90                DmExtractDevicePathFromHiiHandle
 .text.LibToLowerString
                0x000000000000fc3c       0x2c /tmp/UiApp.dll.XMj2sU.ltrans1.ltrans.o
                0x000000000000fc3c                LibToLowerString
 .text.LibStrDuplicate
                0x000000000000fc68       0x78 /tmp/UiApp.dll.XMj2sU.ltrans1.ltrans.o
                0x000000000000fc68                LibStrDuplicate
 .text.LibDestroyMenuEntry
                0x000000000000fce0       0x78 /tmp/UiApp.dll.XMj2sU.ltrans1.ltrans.o
                0x000000000000fce0                LibDestroyMenuEntry
 .text.LibFreeMenu
                0x000000000000fd58       0xa0 /tmp/UiApp.dll.XMj2sU.ltrans1.ltrans.o
                0x000000000000fd58                LibFreeMenu
 .text.LibCreateMenuEntry
                0x000000000000fdf8       0x58 /tmp/UiApp.dll.XMj2sU.ltrans1.ltrans.o
                0x000000000000fdf8                LibCreateMenuEntry
 .text.EfiBootManagerFreeLoadOption
                0x000000000000fe50       0x54 /tmp/UiApp.dll.XMj2sU.ltrans1.ltrans.o
                0x000000000000fe50                EfiBootManagerFreeLoadOption
 .text.EfiBootManagerFreeLoadOptions
                0x000000000000fea4       0x64 /tmp/UiApp.dll.XMj2sU.ltrans1.ltrans.o
                0x000000000000fea4                EfiBootManagerFreeLoadOptions
 .text.EfiBootManagerDeleteLoadOptionVariable
                0x000000000000ff08      0x184 /tmp/UiApp.dll.XMj2sU.ltrans1.ltrans.o
                0x000000000000ff08                EfiBootManagerDeleteLoadOptionVariable
 .text.EfiBootManagerInitializeLoadOption
                0x000000000001008c       0xe4 /tmp/UiApp.dll.XMj2sU.ltrans1.ltrans.o
                0x000000000001008c                EfiBootManagerInitializeLoadOption
 .text.EfiBootManagerVariableToLoadOptionEx.part.0
                0x0000000000010170      0x264 /tmp/UiApp.dll.XMj2sU.ltrans1.ltrans.o
                0x0000000000010170                EfiBootManagerVariableToLoadOptionEx.part.0
 .text.BmHotkeyCallback
                0x00000000000103d4      0x2bc /tmp/UiApp.dll.XMj2sU.ltrans1.ltrans.o
 .text.EfiBootManagerLoadOptionToVariable
                0x0000000000010690      0x274 /tmp/UiApp.dll.XMj2sU.ltrans1.ltrans.o
                0x0000000000010690                EfiBootManagerLoadOptionToVariable
 .text.BmGetFreeOptionNumber
                0x0000000000010904      0x1a0 /tmp/UiApp.dll.XMj2sU.ltrans1.ltrans.o
                0x0000000000010904                BmGetFreeOptionNumber
 .text.EfiBootManagerRefreshAllBootOption
                0x0000000000010aa4      0x770 /tmp/UiApp.dll.XMj2sU.ltrans1.ltrans.o
                0x0000000000010aa4                EfiBootManagerRefreshAllBootOption
 .text.EfiBootManagerConnectAll
                0x0000000000011214       0xc8 /tmp/UiApp.dll.XMj2sU.ltrans1.ltrans.o
                0x0000000000011214                EfiBootManagerConnectAll
 .text.BmGetNextLoadOptionDevicePath
                0x00000000000112dc      0xd7c /tmp/UiApp.dll.XMj2sU.ltrans1.ltrans.o
 .text.InternalGetReportStatusCode.part.0
                0x0000000000012058       0x50 /tmp/UiApp.dll.XMj2sU.ltrans1.ltrans.o
                0x0000000000012058                InternalGetReportStatusCode.part.0
 .text.ReportErrorCodeEnabled
                0x00000000000120a8        0x8 /tmp/UiApp.dll.XMj2sU.ltrans1.ltrans.o
                0x00000000000120a8                ReportErrorCodeEnabled
 .text.BmSetVariableAndReportStatusCodeOnError
                0x00000000000120b0       0xf8 /tmp/UiApp.dll.XMj2sU.ltrans1.ltrans.o
 .text.BmReportLoadFailure
                0x00000000000121a8       0x8c /tmp/UiApp.dll.XMj2sU.ltrans1.ltrans.o
 .text.EfiBootManagerBoot
                0x0000000000012234     0x1230 /tmp/UiApp.dll.XMj2sU.ltrans1.ltrans.o
                0x0000000000012234                EfiBootManagerBoot
 .text.HiiGetSupportedLanguages
                0x0000000000013464       0xe4 /tmp/UiApp.dll.XMj2sU.ltrans1.ltrans.o
                0x0000000000013464                HiiGetSupportedLanguages
 .text.HiiUpdateForm
                0x0000000000013548      0x500 /tmp/UiApp.dll.XMj2sU.ltrans1.ltrans.o
                0x0000000000013548                HiiUpdateForm
 .text.HiiCreateGotoOpCode
                0x0000000000013a48       0xa4 /tmp/UiApp.dll.XMj2sU.ltrans1.ltrans.o
                0x0000000000013a48                HiiCreateGotoOpCode
 .text.LibUpdateFileExplorePage
                0x0000000000013aec      0x200 /tmp/UiApp.dll.XMj2sU.ltrans1.ltrans.o
                0x0000000000013aec                LibUpdateFileExplorePage
 .text.LibCallback
                0x0000000000013cec      0x50c /tmp/UiApp.dll.XMj2sU.ltrans1.ltrans.o
                0x0000000000013cec                LibCallback
 .text.EfiEventEmptyFunction
                0x00000000000141f8        0x4 /tmp/UiApp.dll.XMj2sU.ltrans2.ltrans.o
                0x00000000000141f8                EfiEventEmptyFunction
 .text.FakeRouteConfig
                0x00000000000141fc       0x24 /tmp/UiApp.dll.XMj2sU.ltrans2.ltrans.o
                0x00000000000141fc                FakeRouteConfig
 .text.FakeExtractConfig
                0x0000000000014220       0x24 /tmp/UiApp.dll.XMj2sU.ltrans2.ltrans.o
                0x0000000000014220                FakeExtractConfig
 .text.BaseDebugLibSerialPortConstructor
                0x0000000000014244       0x84 /tmp/UiApp.dll.XMj2sU.ltrans2.ltrans.o
 .text.UefiLibGetStringWidth.part.0
                0x00000000000142c8       0x84 /tmp/UiApp.dll.XMj2sU.ltrans2.ltrans.o
                0x00000000000142c8                UefiLibGetStringWidth.part.0
 .text.DevicePathFromHandle
                0x000000000001434c       0x68 /tmp/UiApp.dll.XMj2sU.ltrans2.ltrans.o
                0x000000000001434c                DevicePathFromHandle
 .text.AllocateZeroPool
                0x00000000000143b4       0x34 /tmp/UiApp.dll.XMj2sU.ltrans2.ltrans.o
                0x00000000000143b4                AllocateZeroPool
 .text.AllocatePool
                0x00000000000143e8        0x4 /tmp/UiApp.dll.XMj2sU.ltrans2.ltrans.o
                0x00000000000143e8                AllocatePool
 .text.DebugPrintLevelEnabled
                0x00000000000143ec        0x8 /tmp/UiApp.dll.XMj2sU.ltrans2.ltrans.o
                0x00000000000143ec                DebugPrintLevelEnabled
 .text.DebugCodeEnabled
                0x00000000000143f4        0x8 /tmp/UiApp.dll.XMj2sU.ltrans2.ltrans.o
                0x00000000000143f4                DebugCodeEnabled
 .text.DebugPrintEnabled
                0x00000000000143fc        0x8 /tmp/UiApp.dll.XMj2sU.ltrans2.ltrans.o
                0x00000000000143fc                DebugPrintEnabled
 .text.DebugAssertEnabled
                0x0000000000014404        0x8 /tmp/UiApp.dll.XMj2sU.ltrans2.ltrans.o
                0x0000000000014404                DebugAssertEnabled
 .text.BasePrintLibFillBuffer
                0x000000000001440c       0x34 /tmp/UiApp.dll.XMj2sU.ltrans2.ltrans.o
                0x000000000001440c                BasePrintLibFillBuffer
 .text.AsciiStrLen
                0x0000000000014440       0x90 /tmp/UiApp.dll.XMj2sU.ltrans2.ltrans.o
                0x0000000000014440                AsciiStrLen
 .text.DebugAssert
                0x00000000000144d0       0x7c /tmp/UiApp.dll.XMj2sU.ltrans2.ltrans.o
                0x00000000000144d0                DebugAssert
 .text.SetDevicePathNodeLength
                0x000000000001454c       0x60 /tmp/UiApp.dll.XMj2sU.ltrans2.ltrans.o
                0x000000000001454c                SetDevicePathNodeLength
 .text.DevicePathNodeLength
                0x00000000000145ac       0x50 /tmp/UiApp.dll.XMj2sU.ltrans2.ltrans.o
                0x00000000000145ac                DevicePathNodeLength
 .text.NextDevicePathNode
                0x00000000000145fc       0x50 /tmp/UiApp.dll.XMj2sU.ltrans2.ltrans.o
                0x00000000000145fc                NextDevicePathNode
 .text.DevicePathSubType
                0x000000000001464c       0x48 /tmp/UiApp.dll.XMj2sU.ltrans2.ltrans.o
                0x000000000001464c                DevicePathSubType
 .text.DevicePathType
                0x0000000000014694       0x48 /tmp/UiApp.dll.XMj2sU.ltrans2.ltrans.o
                0x0000000000014694                DevicePathType
 .text.IsDevicePathEndType
                0x00000000000146dc       0x58 /tmp/UiApp.dll.XMj2sU.ltrans2.ltrans.o
                0x00000000000146dc                IsDevicePathEndType
 .text.IsDevicePathEnd
                0x0000000000014734       0x70 /tmp/UiApp.dll.XMj2sU.ltrans2.ltrans.o
                0x0000000000014734                IsDevicePathEnd
 .text.IsDevicePathValid
                0x00000000000147a4       0xe0 /tmp/UiApp.dll.XMj2sU.ltrans2.ltrans.o
                0x00000000000147a4                IsDevicePathValid
 .text.UefiDevicePathLibGetDevicePathSize
                0x0000000000014884       0x70 /tmp/UiApp.dll.XMj2sU.ltrans2.ltrans.o
                0x0000000000014884                UefiDevicePathLibGetDevicePathSize
 .text.BasePrintLibValueToString
                0x00000000000148f4       0x2c /tmp/UiApp.dll.XMj2sU.ltrans2.ltrans.o
                0x00000000000148f4                BasePrintLibValueToString
 .text.SPrintLength
                0x0000000000014920       0x64 /tmp/UiApp.dll.XMj2sU.ltrans2.ltrans.o
 .text.UnicodeValueToStringS
                0x0000000000014984      0x224 /tmp/UiApp.dll.XMj2sU.ltrans2.ltrans.o
                0x0000000000014984                UnicodeValueToStringS
 .text.UnicodeVSPrint
                0x0000000000014ba8       0x90 /tmp/UiApp.dll.XMj2sU.ltrans2.ltrans.o
                0x0000000000014ba8                UnicodeVSPrint
 .text.UnicodeSPrint
                0x0000000000014c38       0xa0 /tmp/UiApp.dll.XMj2sU.ltrans2.ltrans.o
                0x0000000000014c38                UnicodeSPrint
 .text.RShiftU64
                0x0000000000014cd8        0x8 /tmp/UiApp.dll.XMj2sU.ltrans2.ltrans.o
 .text.DebugPrint
                0x0000000000014ce0       0xb8 /tmp/UiApp.dll.XMj2sU.ltrans2.ltrans.o
                0x0000000000014ce0                DebugPrint
 .text.HiiRemovePackages
                0x0000000000014d98       0xb0 /tmp/UiApp.dll.XMj2sU.ltrans2.ltrans.o
 .text.FreePool
                0x0000000000014e48       0x7c /tmp/UiApp.dll.XMj2sU.ltrans2.ltrans.o
                0x0000000000014e48                FreePool
 .text.HiiFreeOpCodeHandle
                0x0000000000014ec4       0x54 /tmp/UiApp.dll.XMj2sU.ltrans2.ltrans.o
                0x0000000000014ec4                HiiFreeOpCodeHandle
 .text.HiiAllocateOpCodeHandle
                0x0000000000014f18       0x54 /tmp/UiApp.dll.XMj2sU.ltrans2.ltrans.o
                0x0000000000014f18                HiiAllocateOpCodeHandle
 .text.GetVariable2
                0x0000000000014f6c      0x160 /tmp/UiApp.dll.XMj2sU.ltrans2.ltrans.o
                0x0000000000014f6c                GetVariable2
 .text.GetEfiGlobalVariable2
                0x00000000000150cc       0x14 /tmp/UiApp.dll.XMj2sU.ltrans2.ltrans.o
                0x00000000000150cc                GetEfiGlobalVariable2
 .text.FreePages
                0x00000000000150e0       0xc4 /tmp/UiApp.dll.XMj2sU.ltrans2.ltrans.o
                0x00000000000150e0                FreePages
 .text.GetPcdProtocol
                0x00000000000151a4       0xc0 /tmp/UiApp.dll.XMj2sU.ltrans2.ltrans.o
 .text.UiCustomizeFrontPageBanner
                0x0000000000015264       0x64 /tmp/UiApp.dll.XMj2sU.ltrans2.ltrans.o
 .text.UiSetConsoleMode
                0x00000000000152c8      0x404 /tmp/UiApp.dll.XMj2sU.ltrans2.ltrans.o
 .text.AsciiStrSize
                0x00000000000156cc       0x18 /tmp/UiApp.dll.XMj2sU.ltrans2.ltrans.o
 .text.AsciiStrnCmp
                0x00000000000156e4       0xd4 /tmp/UiApp.dll.XMj2sU.ltrans2.ltrans.o
                0x00000000000156e4                AsciiStrnCmp
 .text.AsciiStrCmp
                0x00000000000157b8       0x88 /tmp/UiApp.dll.XMj2sU.ltrans2.ltrans.o
 .text.StrLen   0x0000000000015840       0xa4 /tmp/UiApp.dll.XMj2sU.ltrans2.ltrans.o
                0x0000000000015840                StrLen
 .text.StrSize  0x00000000000158e4       0x1c /tmp/UiApp.dll.XMj2sU.ltrans2.ltrans.o
                0x00000000000158e4                StrSize
 .text.StrStr   0x0000000000015900       0xac /tmp/UiApp.dll.XMj2sU.ltrans2.ltrans.o
                0x0000000000015900                StrStr
 .text.StrnCmp  0x00000000000159ac       0xd4 /tmp/UiApp.dll.XMj2sU.ltrans2.ltrans.o
                0x00000000000159ac                StrnCmp
 .text.InternalHiiCompareSubString
                0x0000000000015a80       0xf8 /tmp/UiApp.dll.XMj2sU.ltrans2.ltrans.o
                0x0000000000015a80                InternalHiiCompareSubString
 .text.StrCmp   0x0000000000015b78       0x88 /tmp/UiApp.dll.XMj2sU.ltrans2.ltrans.o
                0x0000000000015b78                StrCmp
 .text.AsciiStrnLenS
                0x0000000000015c00       0x3c /tmp/UiApp.dll.XMj2sU.ltrans2.ltrans.o
                0x0000000000015c00                AsciiStrnLenS
 .text.AsciiStrToUnicodeStrS
                0x0000000000015c3c      0x188 /tmp/UiApp.dll.XMj2sU.ltrans2.ltrans.o
                0x0000000000015c3c                AsciiStrToUnicodeStrS
 .text.GetOptionalStringByIndex
                0x0000000000015dc4       0xa8 /tmp/UiApp.dll.XMj2sU.ltrans2.ltrans.o
 .text.StrnLenS
                0x0000000000015e6c       0x70 /tmp/UiApp.dll.XMj2sU.ltrans2.ltrans.o
                0x0000000000015e6c                StrnLenS
 .text.InternalSafeStringNoStrOverlap
                0x0000000000015edc       0x3c /tmp/UiApp.dll.XMj2sU.ltrans2.ltrans.o
                0x0000000000015edc                InternalSafeStringNoStrOverlap
 .text.StrCatS  0x0000000000015f18      0x1ac /tmp/UiApp.dll.XMj2sU.ltrans2.ltrans.o
                0x0000000000015f18                StrCatS
 .text.StrnCpyS
                0x00000000000160c4      0x1a4 /tmp/UiApp.dll.XMj2sU.ltrans2.ltrans.o
                0x00000000000160c4                StrnCpyS
 .text.StrCpyS  0x0000000000016268      0x168 /tmp/UiApp.dll.XMj2sU.ltrans2.ltrans.o
                0x0000000000016268                StrCpyS
 .text.CopyMem  0x00000000000163d0       0xa4 /tmp/UiApp.dll.XMj2sU.ltrans2.ltrans.o
                0x00000000000163d0                CopyMem
 .text.GetBestLanguage
                0x0000000000016474      0x1dc /tmp/UiApp.dll.XMj2sU.ltrans2.ltrans.o
                0x0000000000016474                GetBestLanguage
 .text.SetDevicePathEndNode
                0x0000000000016650       0x54 /tmp/UiApp.dll.XMj2sU.ltrans2.ltrans.o
                0x0000000000016650                SetDevicePathEndNode
 .text.ReallocatePool
                0x00000000000166a4       0x70 /tmp/UiApp.dll.XMj2sU.ltrans2.ltrans.o
                0x00000000000166a4                ReallocatePool
 .text.InternalHiiGrowOpCodeHandle
                0x0000000000016714       0xbc /tmp/UiApp.dll.XMj2sU.ltrans2.ltrans.o
 .text.InternalHiiAppendOpCodes
                0x00000000000167d0       0x8c /tmp/UiApp.dll.XMj2sU.ltrans2.ltrans.o
                0x00000000000167d0                InternalHiiAppendOpCodes
 .text.InternalHiiCreateOpCodeExtended
                0x000000000001685c       0xa4 /tmp/UiApp.dll.XMj2sU.ltrans2.ltrans.o
                0x000000000001685c                InternalHiiCreateOpCodeExtended
 .text.InternalHiiCreateOpCode
                0x0000000000016900        0xc /tmp/UiApp.dll.XMj2sU.ltrans2.ltrans.o
                0x0000000000016900                InternalHiiCreateOpCode
 .text.HiiCreateOneOfOptionOpCode
                0x000000000001690c       0xac /tmp/UiApp.dll.XMj2sU.ltrans2.ltrans.o
                0x000000000001690c                HiiCreateOneOfOptionOpCode
 .text.HiiCreateEndOpCode
                0x00000000000169b8       0x50 /tmp/UiApp.dll.XMj2sU.ltrans2.ltrans.o
                0x00000000000169b8                HiiCreateEndOpCode
 .text.HiiGetFormSetFromHiiHandle
                0x0000000000016a08      0x244 /tmp/UiApp.dll.XMj2sU.ltrans2.ltrans.o
                0x0000000000016a08                HiiGetFormSetFromHiiHandle
 .text.UefiDevicePathLibCatPrint
                0x0000000000016c4c      0x180 /tmp/UiApp.dll.XMj2sU.ltrans2.ltrans.o
                0x0000000000016c4c                UefiDevicePathLibCatPrint
 .text.DevPathToTextNodeGeneric
                0x0000000000016dcc       0xfc /tmp/UiApp.dll.XMj2sU.ltrans2.ltrans.o
                0x0000000000016dcc                DevPathToTextNodeGeneric
 .text.DevPathToTextEndInstance
                0x0000000000016ec8        0xc /tmp/UiApp.dll.XMj2sU.ltrans2.ltrans.o
                0x0000000000016ec8                DevPathToTextEndInstance
 .text.DevPathToTextBBS
                0x0000000000016ed4       0xa0 /tmp/UiApp.dll.XMj2sU.ltrans2.ltrans.o
                0x0000000000016ed4                DevPathToTextBBS
 .text.DevPathRelativeOffsetRange
                0x0000000000016f74       0x10 /tmp/UiApp.dll.XMj2sU.ltrans2.ltrans.o
                0x0000000000016f74                DevPathRelativeOffsetRange
 .text.DevPathToTextFvFile
                0x0000000000016f84       0x10 /tmp/UiApp.dll.XMj2sU.ltrans2.ltrans.o
                0x0000000000016f84                DevPathToTextFvFile
 .text.DevPathToTextFv
                0x0000000000016f94       0x10 /tmp/UiApp.dll.XMj2sU.ltrans2.ltrans.o
                0x0000000000016f94                DevPathToTextFv
 .text.DevPathToTextMediaProtocol
                0x0000000000016fa4       0x10 /tmp/UiApp.dll.XMj2sU.ltrans2.ltrans.o
                0x0000000000016fa4                DevPathToTextMediaProtocol
 .text.DevPathToTextFilePath
                0x0000000000016fb4       0x10 /tmp/UiApp.dll.XMj2sU.ltrans2.ltrans.o
                0x0000000000016fb4                DevPathToTextFilePath
 .text.DevPathToTextCDROM
                0x0000000000016fc4       0x30 /tmp/UiApp.dll.XMj2sU.ltrans2.ltrans.o
                0x0000000000016fc4                DevPathToTextCDROM
 .text.DevPathToTextHardDrive
                0x0000000000016ff4       0x8c /tmp/UiApp.dll.XMj2sU.ltrans2.ltrans.o
                0x0000000000016ff4                DevPathToTextHardDrive
 .text.DevPathToTextUri
                0x0000000000017080       0x94 /tmp/UiApp.dll.XMj2sU.ltrans2.ltrans.o
                0x0000000000017080                DevPathToTextUri
 .text.DevPathToTextBluetoothLE
                0x0000000000017114       0x44 /tmp/UiApp.dll.XMj2sU.ltrans2.ltrans.o
                0x0000000000017114                DevPathToTextBluetoothLE
 .text.DevPathToTextWiFi
                0x0000000000017158       0x6c /tmp/UiApp.dll.XMj2sU.ltrans2.ltrans.o
                0x0000000000017158                DevPathToTextWiFi
 .text.DevPathToTextBluetooth
                0x00000000000171c4       0x24 /tmp/UiApp.dll.XMj2sU.ltrans2.ltrans.o
                0x00000000000171c4                DevPathToTextBluetooth
 .text.DevPathToTextVlan
                0x00000000000171e8       0x10 /tmp/UiApp.dll.XMj2sU.ltrans2.ltrans.o
                0x00000000000171e8                DevPathToTextVlan
 .text.DevPathToTextiSCSI
                0x00000000000171f8      0x10c /tmp/UiApp.dll.XMj2sU.ltrans2.ltrans.o
                0x00000000000171f8                DevPathToTextiSCSI
 .text.DevPathToTextUart
                0x0000000000017304      0x118 /tmp/UiApp.dll.XMj2sU.ltrans2.ltrans.o
                0x0000000000017304                DevPathToTextUart
 .text.DevPathToTextInfiniBand
                0x000000000001741c       0x1c /tmp/UiApp.dll.XMj2sU.ltrans2.ltrans.o
                0x000000000001741c                DevPathToTextInfiniBand
 .text.CatIPv6Address
                0x0000000000017438       0x8c /tmp/UiApp.dll.XMj2sU.ltrans2.ltrans.o
 .text.CatIPv4Address
                0x00000000000174c4       0x1c /tmp/UiApp.dll.XMj2sU.ltrans2.ltrans.o
 .text.DevPathToTextDns
                0x00000000000174e0       0xc0 /tmp/UiApp.dll.XMj2sU.ltrans2.ltrans.o
                0x00000000000174e0                DevPathToTextDns
 .text.CatNetworkProtocol
                0x00000000000175a0       0x38 /tmp/UiApp.dll.XMj2sU.ltrans2.ltrans.o
 .text.DevPathToTextIPv6
                0x00000000000175d8       0xe8 /tmp/UiApp.dll.XMj2sU.ltrans2.ltrans.o
                0x00000000000175d8                DevPathToTextIPv6
 .text.DevPathToTextIPv4
                0x00000000000176c0       0xf0 /tmp/UiApp.dll.XMj2sU.ltrans2.ltrans.o
                0x00000000000176c0                DevPathToTextIPv4
 .text.DevPathToTextMacAddr
                0x00000000000177b0       0x8c /tmp/UiApp.dll.XMj2sU.ltrans2.ltrans.o
                0x00000000000177b0                DevPathToTextMacAddr
 .text.DevPathToTextI2O
                0x000000000001783c       0x10 /tmp/UiApp.dll.XMj2sU.ltrans2.ltrans.o
                0x000000000001783c                DevPathToTextI2O
 .text.DevPathToTextSata
                0x000000000001784c       0x18 /tmp/UiApp.dll.XMj2sU.ltrans2.ltrans.o
                0x000000000001784c                DevPathToTextSata
 .text.DevPathToTextUsbClass
                0x0000000000017864      0x194 /tmp/UiApp.dll.XMj2sU.ltrans2.ltrans.o
                0x0000000000017864                DevPathToTextUsbClass
 .text.DevPathToTextLogicalUnit
                0x00000000000179f8       0x10 /tmp/UiApp.dll.XMj2sU.ltrans2.ltrans.o
                0x00000000000179f8                DevPathToTextLogicalUnit
 .text.DevPathToTextUsb
                0x0000000000017a08       0x14 /tmp/UiApp.dll.XMj2sU.ltrans2.ltrans.o
                0x0000000000017a08                DevPathToTextUsb
 .text.DevPathToText1394
                0x0000000000017a1c       0x10 /tmp/UiApp.dll.XMj2sU.ltrans2.ltrans.o
                0x0000000000017a1c                DevPathToText1394
 .text.DevPathToTextEmmc
                0x0000000000017a2c       0x10 /tmp/UiApp.dll.XMj2sU.ltrans2.ltrans.o
                0x0000000000017a2c                DevPathToTextEmmc
 .text.DevPathToTextSd
                0x0000000000017a3c       0x10 /tmp/UiApp.dll.XMj2sU.ltrans2.ltrans.o
                0x0000000000017a3c                DevPathToTextSd
 .text.DevPathToTextUfs
                0x0000000000017a4c       0x14 /tmp/UiApp.dll.XMj2sU.ltrans2.ltrans.o
                0x0000000000017a4c                DevPathToTextUfs
 .text.DevPathToTextNVMe
                0x0000000000017a60       0x54 /tmp/UiApp.dll.XMj2sU.ltrans2.ltrans.o
                0x0000000000017a60                DevPathToTextNVMe
 .text.DevPathToTextSasEx
                0x0000000000017ab4      0x18c /tmp/UiApp.dll.XMj2sU.ltrans2.ltrans.o
                0x0000000000017ab4                DevPathToTextSasEx
 .text.DevPathToTextFibreEx
                0x0000000000017c40       0xa8 /tmp/UiApp.dll.XMj2sU.ltrans2.ltrans.o
                0x0000000000017c40                DevPathToTextFibreEx
 .text.DevPathToTextFibre
                0x0000000000017ce8       0x10 /tmp/UiApp.dll.XMj2sU.ltrans2.ltrans.o
                0x0000000000017ce8                DevPathToTextFibre
 .text.DevPathToTextScsi
                0x0000000000017cf8       0x14 /tmp/UiApp.dll.XMj2sU.ltrans2.ltrans.o
                0x0000000000017cf8                DevPathToTextScsi
 .text.DevPathToTextAtapi
                0x0000000000017d0c       0x60 /tmp/UiApp.dll.XMj2sU.ltrans2.ltrans.o
                0x0000000000017d0c                DevPathToTextAtapi
 .text.DevPathToTextAcpiAdr
                0x0000000000017d6c       0x9c /tmp/UiApp.dll.XMj2sU.ltrans2.ltrans.o
                0x0000000000017d6c                DevPathToTextAcpiAdr
 .text.DevPathToTextAcpiEx
                0x0000000000017e08      0x288 /tmp/UiApp.dll.XMj2sU.ltrans2.ltrans.o
                0x0000000000017e08                DevPathToTextAcpiEx
 .text.DevPathToTextAcpi
                0x0000000000018090       0xc0 /tmp/UiApp.dll.XMj2sU.ltrans2.ltrans.o
                0x0000000000018090                DevPathToTextAcpi
 .text.DevPathToTextBmc
                0x0000000000018150       0x3c /tmp/UiApp.dll.XMj2sU.ltrans2.ltrans.o
                0x0000000000018150                DevPathToTextBmc
 .text.DevPathToTextController
                0x000000000001818c       0x10 /tmp/UiApp.dll.XMj2sU.ltrans2.ltrans.o
                0x000000000001818c                DevPathToTextController
 .text.DevPathToTextMemMap
                0x000000000001819c       0x14 /tmp/UiApp.dll.XMj2sU.ltrans2.ltrans.o
                0x000000000001819c                DevPathToTextMemMap
 .text.DevPathToTextPccard
                0x00000000000181b0       0x10 /tmp/UiApp.dll.XMj2sU.ltrans2.ltrans.o
                0x00000000000181b0                DevPathToTextPccard
 .text.DevPathToTextPci
                0x00000000000181c0       0x14 /tmp/UiApp.dll.XMj2sU.ltrans2.ltrans.o
                0x00000000000181c0                DevPathToTextPci
 .text.AllocateCopyPool
                0x00000000000181d4       0x8c /tmp/UiApp.dll.XMj2sU.ltrans2.ltrans.o
                0x00000000000181d4                AllocateCopyPool
 .text.DevPathToTextUsbWWID
                0x0000000000018260       0xb4 /tmp/UiApp.dll.XMj2sU.ltrans2.ltrans.o
                0x0000000000018260                DevPathToTextUsbWWID
 .text.UefiDevicePathLibDuplicateDevicePath
                0x0000000000018314       0x34 /tmp/UiApp.dll.XMj2sU.ltrans2.ltrans.o
                0x0000000000018314                UefiDevicePathLibDuplicateDevicePath
 .text.UefiDevicePathLibGetNextDevicePathInstance
                0x0000000000018348       0xd0 /tmp/UiApp.dll.XMj2sU.ltrans2.ltrans.o
                0x0000000000018348                UefiDevicePathLibGetNextDevicePathInstance
 .text.UefiDevicePathLibAppendDevicePathInstance
                0x0000000000018418       0xec /tmp/UiApp.dll.XMj2sU.ltrans2.ltrans.o
                0x0000000000018418                UefiDevicePathLibAppendDevicePathInstance
 .text.UefiDevicePathLibAppendDevicePath
                0x0000000000018504       0xcc /tmp/UiApp.dll.XMj2sU.ltrans2.ltrans.o
                0x0000000000018504                UefiDevicePathLibAppendDevicePath
 .text.FileDevicePath
                0x00000000000185d0       0xa0 /tmp/UiApp.dll.XMj2sU.ltrans2.ltrans.o
                0x00000000000185d0                FileDevicePath
 .text.UefiDevicePathLibAppendDevicePathNode
                0x0000000000018670       0x9c /tmp/UiApp.dll.XMj2sU.ltrans2.ltrans.o
                0x0000000000018670                UefiDevicePathLibAppendDevicePathNode
 .text.GetNextLanguage
                0x000000000001870c       0xcc /tmp/UiApp.dll.XMj2sU.ltrans2.ltrans.o
 .text.FrontPageCallback
                0x00000000000187d8      0x1f4 /tmp/UiApp.dll.XMj2sU.ltrans2.ltrans.o
 .text.CompareGuid
                0x00000000000189cc       0x60 /tmp/UiApp.dll.XMj2sU.ltrans2.ltrans.o
                0x00000000000189cc                CompareGuid
 .text.EfiGetSystemConfigurationTable
                0x0000000000018a2c       0x94 /tmp/UiApp.dll.XMj2sU.ltrans2.ltrans.o
                0x0000000000018a2c                EfiGetSystemConfigurationTable
 .text.GetHobList
                0x0000000000018ac0       0xb4 /tmp/UiApp.dll.XMj2sU.ltrans2.ltrans.o
                0x0000000000018ac0                GetHobList
 .text.DevPathToTextRamDisk
                0x0000000000018b74      0x1a8 /tmp/UiApp.dll.XMj2sU.ltrans2.ltrans.o
                0x0000000000018b74                DevPathToTextRamDisk
 .text.DevPathToTextVendor
                0x0000000000018d1c      0x354 /tmp/UiApp.dll.XMj2sU.ltrans2.ltrans.o
                0x0000000000018d1c                DevPathToTextVendor
 .text.CopyGuid
                0x0000000000019070       0x64 /tmp/UiApp.dll.XMj2sU.ltrans2.ltrans.o
                0x0000000000019070                CopyGuid
 .text.HiiAddPackages
                0x00000000000190d4      0x1c4 /tmp/UiApp.dll.XMj2sU.ltrans2.ltrans.o
 .text.__stack_chk_fail
                0x0000000000019298       0x34 /tmp/UiApp.dll.XMj2sU.ltrans2.ltrans.o
                0x0000000000019298                __stack_chk_fail
 .text.memcpy   0x00000000000192cc       0x20 /tmp/UiApp.dll.XMj2sU.ltrans2.ltrans.o
                0x00000000000192cc                memcpy
 .text.ProcessLibraryConstructorList
                0x00000000000192ec     0x1550 /tmp/UiApp.dll.XMj2sU.ltrans2.ltrans.o
 .text._ModuleEntryPoint
                0x000000000001a83c     0x15ac /tmp/UiApp.dll.XMj2sU.ltrans2.ltrans.o
                0x000000000001a83c                _ModuleEntryPoint
 *fill*         0x000000000001bde8        0x8 
 .text          0x000000000001bdf0      0x218 /home/j0sh1x/Lg_G7_ThinQ_Edk2/edk2_LG_G7_THINQ/workspace/Build/LgG7ThinQPkg/DEBUG_GCC5/AARCH64/MdePkg/Library/BaseMemoryLibOptDxe/BaseMemoryLibOptDxe/OUTPUT/BaseMemoryLibOptDxe.lib(CopyMem.obj)
                0x000000000001bf5c                InternalMemCopyMem
 *fill*         0x000000000001c008       0x18 
 .text          0x000000000001c020       0x20 /home/j0sh1x/Lg_G7_ThinQ_Edk2/edk2_LG_G7_THINQ/workspace/Build/LgG7ThinQPkg/DEBUG_GCC5/AARCH64/MdePkg/Library/BaseMemoryLibOptDxe/BaseMemoryLibOptDxe/OUTPUT/BaseMemoryLibOptDxe.lib(CompareGuid.obj)
                0x000000000001c020                InternalMemCompareGuid
 .text          0x000000000001c040      0x200 /home/j0sh1x/Lg_G7_ThinQ_Edk2/edk2_LG_G7_THINQ/workspace/Build/LgG7ThinQPkg/DEBUG_GCC5/AARCH64/MdePkg/Library/BaseMemoryLibOptDxe/BaseMemoryLibOptDxe/OUTPUT/BaseMemoryLibOptDxe.lib(SetMem.obj)
                0x000000000001c040                InternalMemSetMem16
                0x000000000001c04c                InternalMemSetMem32
                0x000000000001c058                InternalMemSetMem64
                0x000000000001c064                InternalMemZeroMem
                0x000000000001c06c                InternalMemSetMem
 .text          0x000000000001c240       0xe0 /home/j0sh1x/Lg_G7_ThinQ_Edk2/edk2_LG_G7_THINQ/workspace/Build/LgG7ThinQPkg/DEBUG_GCC5/AARCH64/MdePkg/Library/BaseMemoryLibOptDxe/BaseMemoryLibOptDxe/OUTPUT/BaseMemoryLibOptDxe.lib(CompareMem.obj)
                0x000000000001c240                InternalMemCompareMem
 .text.ArmCacheInfo
                0x000000000001c320        0x8 /home/j0sh1x/Lg_G7_ThinQ_Edk2/edk2_LG_G7_THINQ/workspace/Build/LgG7ThinQPkg/DEBUG_GCC5/AARCH64/ArmPkg/Library/ArmLib/ArmBaseLib/OUTPUT/ArmBaseLib.lib(ArmLibSupport.obj)
                0x000000000001c320                ArmCacheInfo
 .text.ArmGetInterruptState
                0x000000000001c328       0x10 /home/j0sh1x/Lg_G7_ThinQ_Edk2/edk2_LG_G7_THINQ/workspace/Build/LgG7ThinQPkg/DEBUG_GCC5/AARCH64/ArmPkg/Library/ArmLib/ArmBaseLib/OUTPUT/ArmBaseLib.lib(ArmLibSupport.obj)
                0x000000000001c328                ArmGetInterruptState
 .text.ArmEnableInterrupts
                0x000000000001c338        0xc /home/j0sh1x/Lg_G7_ThinQ_Edk2/edk2_LG_G7_THINQ/workspace/Build/LgG7ThinQPkg/DEBUG_GCC5/AARCH64/ArmPkg/Library/ArmLib/ArmBaseLib/OUTPUT/ArmBaseLib.lib(ArmLibSupportV8.obj)
                0x000000000001c338                ArmEnableInterrupts
 .text.ArmDisableInterrupts
                0x000000000001c344        0xc /home/j0sh1x/Lg_G7_ThinQ_Edk2/edk2_LG_G7_THINQ/workspace/Build/LgG7ThinQPkg/DEBUG_GCC5/AARCH64/ArmPkg/Library/ArmLib/ArmBaseLib/OUTPUT/ArmBaseLib.lib(ArmLibSupportV8.obj)
                0x000000000001c344                ArmDisableInterrupts
 .text.ArmCleanInvalidateDataCacheEntryByMVA
                0x000000000001c350        0x8 /home/j0sh1x/Lg_G7_ThinQ_Edk2/edk2_LG_G7_THINQ/workspace/Build/LgG7ThinQPkg/DEBUG_GCC5/AARCH64/ArmPkg/Library/ArmLib/ArmBaseLib/OUTPUT/ArmBaseLib.lib(AArch64Support.obj)
                0x000000000001c350                ArmCleanInvalidateDataCacheEntryByMVA
 .text.ArmDataSynchronizationBarrier
                0x000000000001c358        0x8 /home/j0sh1x/Lg_G7_ThinQ_Edk2/edk2_LG_G7_THINQ/workspace/Build/LgG7ThinQPkg/DEBUG_GCC5/AARCH64/ArmPkg/Library/ArmLib/ArmBaseLib/OUTPUT/ArmBaseLib.lib(AArch64Support.obj)
                0x000000000001c358                ArmDataSynchronizationBarrier
 *(.rodata .rodata.* .gnu.linkonce.r.*)
 .rodata.InternalBaseLibIsListValid.str1.1
                0x000000000001c360       0x88 /tmp/UiApp.dll.XMj2sU.ltrans0.ltrans.o
                                         0x9d (size before relaxing)
 .rodata.BOpt_DestroyMenuEntry
                0x000000000001c3e8        0x6 /tmp/UiApp.dll.XMj2sU.ltrans0.ltrans.o
 .rodata.BmmSetConsoleMode.str1.1
                0x000000000001c3ee       0x9b /tmp/UiApp.dll.XMj2sU.ltrans0.ltrans.o
 .rodata.BmSetConsoleMode.str1.1
                0x000000000001c489       0x57 /tmp/UiApp.dll.XMj2sU.ltrans0.ltrans.o
 .rodata.BOpt_GetOptionNumber.str2.2
                0x000000000001c4e0       0x1e /tmp/UiApp.dll.XMj2sU.ltrans0.ltrans.o
 .rodata.BOpt_GetOptionNumber.str1.1
                0x000000000001c4fe        0xd /tmp/UiApp.dll.XMj2sU.ltrans0.ltrans.o
 *fill*         0x000000000001c50b        0x1 
 .rodata.StrnCatS.constprop.0.str2.2
                0x000000000001c50c        0x8 /tmp/UiApp.dll.XMj2sU.ltrans0.ltrans.o
 .rodata.StrnCatS.constprop.0.str1.1
                0x000000000001c514      0x12a /tmp/UiApp.dll.XMj2sU.ltrans0.ltrans.o
 .rodata.HiiConstructConfigHdr.constprop.0.str2.2
                0x000000000001c63e       0x28 /tmp/UiApp.dll.XMj2sU.ltrans0.ltrans.o
 .rodata.HiiIsConfigHdrMatch.constprop.0.str1.1
                0x000000000001c666       0x66 /tmp/UiApp.dll.XMj2sU.ltrans0.ltrans.o
 .rodata.SetMem.constprop.0.str1.1
                0x000000000001c6cc       0x8e /tmp/UiApp.dll.XMj2sU.ltrans0.ltrans.o
 .rodata.SetMem16.str1.1
                0x000000000001c75a       0x86 /tmp/UiApp.dll.XMj2sU.ltrans0.ltrans.o
                                         0x9d (size before relaxing)
 .rodata.BootMaintExtractConfig.str1.1
                0x000000000001c7e0       0x33 /tmp/UiApp.dll.XMj2sU.ltrans0.ltrans.o
 *fill*         0x000000000001c813        0x1 
 .rodata.BootMaintExtractConfig.str2.2
                0x000000000001c814       0x40 /tmp/UiApp.dll.XMj2sU.ltrans0.ltrans.o
 .rodata.CreatePopUp.constprop.0.str1.1
                0x000000000001c854       0x95 /tmp/UiApp.dll.XMj2sU.ltrans0.ltrans.o
 *fill*         0x000000000001c8e9        0x1 
 .rodata.CreatePopUp.constprop.0.str2.2
                0x000000000001c8ea        0x8 /tmp/UiApp.dll.XMj2sU.ltrans0.ltrans.o
 .rodata.HiiSetString.constprop.0.str1.1
                0x000000000001c8f2       0x56 /tmp/UiApp.dll.XMj2sU.ltrans0.ltrans.o
                                         0x87 (size before relaxing)
 .rodata.HiiGetString.constprop.0.str1.1
                0x000000000001c948        0xe /tmp/UiApp.dll.XMj2sU.ltrans0.ltrans.o
                                          0xf (size before relaxing)
 .rodata.HiiGetString.constprop.0.str2.2
                0x000000000001c956       0x1a /tmp/UiApp.dll.XMj2sU.ltrans0.ltrans.o
 .rodata.EfiBootManagerAddLoadOptionVariable.constprop.0.str1.1
                0x000000000001c970       0xe8 /tmp/UiApp.dll.XMj2sU.ltrans0.ltrans.o
 .rodata.EfiBootManagerGetLoadOptions.part.0.constprop.0.str2.2
                0x000000000001ca58       0x1e /tmp/UiApp.dll.XMj2sU.ltrans0.ltrans.o
 .rodata.EfiBootManagerGetLoadOptions.part.0.constprop.0.str1.1
                0x000000000001ca76       0x7f /tmp/UiApp.dll.XMj2sU.ltrans0.ltrans.o
                                         0x97 (size before relaxing)
 .rodata.EfiAcquireLock.constprop.0.str1.1
                0x000000000001caf5       0x62 /tmp/UiApp.dll.XMj2sU.ltrans0.ltrans.o
 .rodata.EfiReleaseLock.constprop.0.str1.1
                0x000000000001cb57       0x1e /tmp/UiApp.dll.XMj2sU.ltrans0.ltrans.o
 .rodata.ReportStatusCodeEx.constprop.0.str1.1
                0x000000000001cb75       0xdf /tmp/UiApp.dll.XMj2sU.ltrans0.ltrans.o
 .rodata.IsZeroBuffer.constprop.0.str1.1
                0x000000000001cc54       0x5c /tmp/UiApp.dll.XMj2sU.ltrans0.ltrans.o
 .rodata.GetPerformanceMeasurementProtocol.str1.1
                0x000000000001ccb0       0x85 /tmp/UiApp.dll.XMj2sU.ltrans0.ltrans.o
 .rodata.LogPerformanceMeasurement.constprop.0.str1.1
                0x000000000001cd35       0x12 /tmp/UiApp.dll.XMj2sU.ltrans0.ltrans.o
 .rodata.EndPerformanceMeasurementEx.constprop.0.str1.1
                0x000000000001cd47        0xb /tmp/UiApp.dll.XMj2sU.ltrans0.ltrans.o
 .rodata.EfiGetNameGuidFromFwVolDevicePathNode.str1.1
                0x000000000001cd52       0x6a /tmp/UiApp.dll.XMj2sU.ltrans0.ltrans.o
 .rodata.Print.str1.1
                0x000000000001cdbc       0x84 /tmp/UiApp.dll.XMj2sU.ltrans0.ltrans.o
 .rodata.WriteUnaligned16.str1.1
                0x000000000001ce40       0x4a /tmp/UiApp.dll.XMj2sU.ltrans0.ltrans.o
 .rodata.BasePrintLibSPrintMarker.constprop.0.str1.1
                0x000000000001ce8a      0x292 /tmp/UiApp.dll.XMj2sU.ltrans0.ltrans.o
 .rodata.BasePrintLibSPrintMarker.constprop.0
                0x000000000001d11c       0x5e /tmp/UiApp.dll.XMj2sU.ltrans0.ltrans.o
 .rodata.AsciiSPrint.constprop.0.str1.1
                0x000000000001d17a       0x18 /tmp/UiApp.dll.XMj2sU.ltrans0.ltrans.o
 .rodata.IsNull.str1.1
                0x000000000001d192       0x22 /tmp/UiApp.dll.XMj2sU.ltrans0.ltrans.o
 .rodata.IsListEmpty.str1.1
                0x000000000001d1b4       0x26 /tmp/UiApp.dll.XMj2sU.ltrans0.ltrans.o
 .rodata.RemoveEntryList.str1.1
                0x000000000001d1da       0x15 /tmp/UiApp.dll.XMj2sU.ltrans0.ltrans.o
 *fill*         0x000000000001d1ef        0x1 
 .rodata.ChooseFile.constprop.0.str2.2
                0x000000000001d1f0       0x68 /tmp/UiApp.dll.XMj2sU.ltrans0.ltrans.o
 .rodata.ChooseFile.constprop.0.str1.1
                0x000000000001d258       0xc5 /tmp/UiApp.dll.XMj2sU.ltrans0.ltrans.o
 .rodata.InitializeListHead.str1.1
                0x000000000001d31d       0x19 /tmp/UiApp.dll.XMj2sU.ltrans0.ltrans.o
 .rodata.CompareMem.str1.1
                0x000000000001d336      0x11a /tmp/UiApp.dll.XMj2sU.ltrans0.ltrans.o
 .rodata.ZeroMem.str1.1
                0x000000000001d450       0x8d /tmp/UiApp.dll.XMj2sU.ltrans0.ltrans.o
 *fill*         0x000000000001d4dd        0x1 
 .rodata.UefiDevicePathLibConvertDevicePathToText.constprop.0.str2.2
                0x000000000001d4de        0x4 /tmp/UiApp.dll.XMj2sU.ltrans0.ltrans.o
 .rodata.HiiCreateOneOfOpCode.constprop.0.str1.1
                0x000000000001d4e2       0x24 /tmp/UiApp.dll.XMj2sU.ltrans0.ltrans.o
 .rodata.BootManagerCallback.str2.2
                0x000000000001d506       0xb6 /tmp/UiApp.dll.XMj2sU.ltrans0.ltrans.o
 .rodata.BootManagerCallback.str1.1
                0x000000000001d5bc      0x140 /tmp/UiApp.dll.XMj2sU.ltrans0.ltrans.o
                                        0x182 (size before relaxing)
 .rodata.BOpt_FreeMenu.str1.1
                0x000000000001d6fc       0x61 /tmp/UiApp.dll.XMj2sU.ltrans0.ltrans.o
 .rodata.BOpt_GetMenuEntry.str1.1
                0x000000000001d75d       0x24 /tmp/UiApp.dll.XMj2sU.ltrans0.ltrans.o
 .rodata.UpdateConsolePage.str1.1
                0x000000000001d781       0x8a /tmp/UiApp.dll.XMj2sU.ltrans0.ltrans.o
 .rodata.Var_UpdateConsoleOption.str1.1
                0x000000000001d80b       0xe4 /tmp/UiApp.dll.XMj2sU.ltrans0.ltrans.o
 .rodata.GetDriverOrder.str1.1
                0x000000000001d8ef       0x1d /tmp/UiApp.dll.XMj2sU.ltrans0.ltrans.o
 .rodata.UpdateOrderPage.str1.1
                0x000000000001d90c       0x1d /tmp/UiApp.dll.XMj2sU.ltrans0.ltrans.o
                                         0x1c (size before relaxing)
 .rodata.UpdatePageBody
                0x000000000001d90c        0x8 /tmp/UiApp.dll.XMj2sU.ltrans0.ltrans.o
 .rodata.UpdateConsoleContent.str2.2
                0x000000000001d914       0x28 /tmp/UiApp.dll.XMj2sU.ltrans0.ltrans.o
 .rodata.UpdateConsoleContent.str1.1
                0x000000000001d93c       0x78 /tmp/UiApp.dll.XMj2sU.ltrans0.ltrans.o
 .rodata.BOpt_CreateMenuEntry
                0x000000000001d9b4        0x6 /tmp/UiApp.dll.XMj2sU.ltrans0.ltrans.o
 .rodata.GetConsoleMenu.str2.2
                0x000000000001d9ba       0x3a /tmp/UiApp.dll.XMj2sU.ltrans0.ltrans.o
 .rodata.GetConsoleMenu.str1.1
                0x000000000001d9f4       0x92 /tmp/UiApp.dll.XMj2sU.ltrans0.ltrans.o
 .rodata.BOpt_GetDriverOptions.str2.2
                0x000000000001da86       0x2e /tmp/UiApp.dll.XMj2sU.ltrans0.ltrans.o
 .rodata.BOpt_GetDriverOptions.str1.1
                0x000000000001dab4       0x86 /tmp/UiApp.dll.XMj2sU.ltrans0.ltrans.o
 .rodata.BOpt_GetBootOptions.str2.2
                0x000000000001db3a       0x12 /tmp/UiApp.dll.XMj2sU.ltrans0.ltrans.o
 .rodata.BOpt_GetBootOptions.str1.1
                0x000000000001db4c       0x1d /tmp/UiApp.dll.XMj2sU.ltrans0.ltrans.o
 .rodata.BootMaintCallback.str1.1
                0x000000000001db69      0x469 /tmp/UiApp.dll.XMj2sU.ltrans0.ltrans.o
                                        0x480 (size before relaxing)
 .rodata.BootMaintCallback.str2.2
                0x000000000001dfd2        0xc /tmp/UiApp.dll.XMj2sU.ltrans0.ltrans.o
 *fill*         0x000000000001dfde        0x2 
 .rodata.BootMaintCallback
                0x000000000001dfe0       0x50 /tmp/UiApp.dll.XMj2sU.ltrans0.ltrans.o
 .rodata.BootMaintRouteConfig.str1.1
                0x000000000001e030      0x122 /tmp/UiApp.dll.XMj2sU.ltrans0.ltrans.o
 .rodata.BootMaintRouteConfig.str2.2
                0x000000000001e152       0x4a /tmp/UiApp.dll.XMj2sU.ltrans0.ltrans.o
 .rodata.ExtractFileNameFromDevicePath.str1.1
                0x000000000001e19c      0x122 /tmp/UiApp.dll.XMj2sU.ltrans0.ltrans.o
                                         0x1b (size before relaxing)
 .rodata.CreateDeviceManagerForm.str2.2
                0x000000000001e19c        0xc /tmp/UiApp.dll.XMj2sU.ltrans0.ltrans.o
 .rodata.CreateDeviceManagerForm.str1.1
                0x000000000001e1a8       0x5b /tmp/UiApp.dll.XMj2sU.ltrans0.ltrans.o
 *fill*         0x000000000001e203        0x1 
 .rodata.str2.2
                0x000000000001e204      0x14c /tmp/UiApp.dll.XMj2sU.ltrans0.ltrans.o
 .rodata.str1.1
                0x000000000001e350      0x224 /tmp/UiApp.dll.XMj2sU.ltrans0.ltrans.o
                                        0x235 (size before relaxing)
 *fill*         0x000000000001e574        0x4 
 .rodata.BaudRateList
                0x000000000001e578      0x130 /tmp/UiApp.dll.XMj2sU.ltrans0.ltrans.o
                0x000000000001e578                BaudRateList
 .rodata.DataBitsList
                0x000000000001e6a8       0x40 /tmp/UiApp.dll.XMj2sU.ltrans0.ltrans.o
                0x000000000001e6a8                DataBitsList
 .rodata.ParityList
                0x000000000001e6e8       0x50 /tmp/UiApp.dll.XMj2sU.ltrans0.ltrans.o
                0x000000000001e6e8                ParityList
 .rodata.StopBitsList
                0x000000000001e738       0x30 /tmp/UiApp.dll.XMj2sU.ltrans0.ltrans.o
                0x000000000001e738                StopBitsList
 .rodata.TerminalType
                0x000000000001e768        0xa /tmp/UiApp.dll.XMj2sU.ltrans0.ltrans.o
 .rodata._gPcd_FixedAtBuild_PcdDriverHealthConfigureForm
                0x000000000001e772       0x10 /tmp/UiApp.dll.XMj2sU.ltrans0.ltrans.o
                0x000000000001e772                _gPcd_FixedAtBuild_PcdDriverHealthConfigureForm
 *fill*         0x000000000001e782        0x6 
 .rodata.mBmLoadOptionName
                0x000000000001e788       0x20 /tmp/UiApp.dll.XMj2sU.ltrans0.ltrans.o
                0x000000000001e788                mBmLoadOptionName
 .rodata.mBmLoadOptionOrderName
                0x000000000001e7a8       0x20 /tmp/UiApp.dll.XMj2sU.ltrans0.ltrans.o
                0x000000000001e7a8                mBmLoadOptionOrderName
 .rodata.mConfigHdrTemplate
                0x000000000001e7c8       0x70 /tmp/UiApp.dll.XMj2sU.ltrans0.ltrans.o
 .rodata.mDeviceTypeStr
                0x000000000001e838       0x40 /tmp/UiApp.dll.XMj2sU.ltrans0.ltrans.o
 .rodata.mStatusString
                0x000000000001e878      0x138 /tmp/UiApp.dll.XMj2sU.ltrans0.ltrans.o
 .rodata.mUefiDevicePathLibToTextTable
                0x000000000001e9b0      0x320 /tmp/UiApp.dll.XMj2sU.ltrans0.ltrans.o
 .rodata.LibGetMenuEntry.str1.1
                0x000000000001ecd0       0x90 /tmp/UiApp.dll.XMj2sU.ltrans1.ltrans.o
 .rodata.EfiBootManagerConnectDevicePath.str1.1
                0x000000000001ecd0       0xa6 /tmp/UiApp.dll.XMj2sU.ltrans1.ltrans.o
 .rodata.LibAppendFileName.str1.1
                0x000000000001ed76       0x17 /tmp/UiApp.dll.XMj2sU.ltrans1.ltrans.o
                                         0x2b (size before relaxing)
 .rodata.LibAppendFileName.str2.2
                0x000000000001ed8d        0x4 /tmp/UiApp.dll.XMj2sU.ltrans1.ltrans.o
 .rodata.BmGetUsbDescription.str1.1
                0x000000000001ed8d       0x5f /tmp/UiApp.dll.XMj2sU.ltrans1.ltrans.o
                                         0x7b (size before relaxing)
 .rodata.BmGetUsbDescription.str2.2
                0x000000000001edec      0x14c /tmp/UiApp.dll.XMj2sU.ltrans1.ltrans.o
                                          0x4 (size before relaxing)
 .rodata.BmGetNetworkDescription.str2.2
                0x000000000001edec       0xb4 /tmp/UiApp.dll.XMj2sU.ltrans1.ltrans.o
 .rodata.BmPrintDp.str1.1
                0x000000000001eea0        0x3 /tmp/UiApp.dll.XMj2sU.ltrans1.ltrans.o
 .rodata.BmGetSingleControllerHealthStatus.str1.1
                0x000000000001eea3       0xa1 /tmp/UiApp.dll.XMj2sU.ltrans1.ltrans.o
                                         0xd6 (size before relaxing)
 .rodata.EfiBootManagerGetDriverHealthInfo.str1.1
                0x000000000001ef44       0x24 /tmp/UiApp.dll.XMj2sU.ltrans1.ltrans.o
 .rodata.BmExpandMediaDevicePath.str1.1
                0x000000000001ef68       0x75 /tmp/UiApp.dll.XMj2sU.ltrans1.ltrans.o
 *fill*         0x000000000001efdd        0x1 
 .rodata.BmExpandMediaDevicePath.str2.2
                0x000000000001efde       0x2e /tmp/UiApp.dll.XMj2sU.ltrans1.ltrans.o
 .rodata.BmRepairNotify.str1.1
                0x000000000001f00c       0x1a /tmp/UiApp.dll.XMj2sU.ltrans1.ltrans.o
 .rodata.BmRepairNotify.str2.2
                0x000000000001f026       0x34 /tmp/UiApp.dll.XMj2sU.ltrans1.ltrans.o
 .rodata.BmGetControllerName.str2.2
                0x000000000001f05a       0x34 /tmp/UiApp.dll.XMj2sU.ltrans1.ltrans.o
                                         0x24 (size before relaxing)
 .rodata.BmGetControllerName.str1.1
                0x000000000001f05a        0xa /tmp/UiApp.dll.XMj2sU.ltrans1.ltrans.o
                                          0xb (size before relaxing)
 .rodata.BmDisplayMessages.str1.1
                0x000000000001f064       0x16 /tmp/UiApp.dll.XMj2sU.ltrans1.ltrans.o
 .rodata.BmDisplayMessages.str2.2
                0x000000000001f07a       0x2c /tmp/UiApp.dll.XMj2sU.ltrans1.ltrans.o
 .rodata.BmRepairAllControllers.part.0.str1.1
                0x000000000001f0a6       0x76 /tmp/UiApp.dll.XMj2sU.ltrans1.ltrans.o
 .rodata.BmGetBootDescription.str1.1
                0x000000000001f11c       0x38 /tmp/UiApp.dll.XMj2sU.ltrans1.ltrans.o
 .rodata.BmUpdateSystemTableConsole.str1.1
                0x000000000001f154       0x32 /tmp/UiApp.dll.XMj2sU.ltrans1.ltrans.o
 .rodata.BmGetMiscDescription.str2.2
                0x000000000001f186       0xa4 /tmp/UiApp.dll.XMj2sU.ltrans1.ltrans.o
                                         0xc8 (size before relaxing)
 .rodata.BmGetMiscDescription.str1.1
                0x000000000001f22a       0x1b /tmp/UiApp.dll.XMj2sU.ltrans1.ltrans.o
 .rodata.BmGetDescriptionFromDiskInfo.str2.2
                0x000000000001f22a       0x2c /tmp/UiApp.dll.XMj2sU.ltrans1.ltrans.o
 .rodata.BmDestroyRamDisk.str1.1
                0x000000000001f256       0x82 /tmp/UiApp.dll.XMj2sU.ltrans1.ltrans.o
 .rodata.BmEndOfBdsPerfCode.str1.1
                0x000000000001f2d8        0x4 /tmp/UiApp.dll.XMj2sU.ltrans1.ltrans.o
 .rodata.EfiBootManagerConnectAllDefaultConsoles.str1.1
                0x000000000001f2dc       0x23 /tmp/UiApp.dll.XMj2sU.ltrans1.ltrans.o
 .rodata.EfiBootManagerConnectAllDefaultConsoles.str2.2
                0x000000000001f2ff       0x28 /tmp/UiApp.dll.XMj2sU.ltrans1.ltrans.o
 .rodata.IsMacAddressDevicePath.str1.1
                0x000000000001f2ff       0x1f /tmp/UiApp.dll.XMj2sU.ltrans1.ltrans.o
                                         0x8f (size before relaxing)
 .rodata.IsMacAddressDevicePath.str2.2
                0x000000000001f31e        0xa /tmp/UiApp.dll.XMj2sU.ltrans1.ltrans.o
 .rodata.DmExtractDevicePathFromHiiHandle.str1.1
                0x000000000001f328       0x17 /tmp/UiApp.dll.XMj2sU.ltrans1.ltrans.o
 .rodata.LibStrDuplicate.str1.1
                0x000000000001f328       0x15 /tmp/UiApp.dll.XMj2sU.ltrans1.ltrans.o
 .rodata.EfiBootManagerDeleteLoadOptionVariable.str1.1
                0x000000000001f33d       0xc9 /tmp/UiApp.dll.XMj2sU.ltrans1.ltrans.o
 .rodata.EfiBootManagerDeleteLoadOptionVariable.str2.2
                0x000000000001f33d        0xe /tmp/UiApp.dll.XMj2sU.ltrans1.ltrans.o
 .rodata.EfiBootManagerVariableToLoadOptionEx.part.0.str1.1
                0x000000000001f33d       0x23 /tmp/UiApp.dll.XMj2sU.ltrans1.ltrans.o
 .rodata.BmHotkeyCallback.str1.1
                0x000000000001f360      0x103 /tmp/UiApp.dll.XMj2sU.ltrans1.ltrans.o
 .rodata.BmHotkeyCallback.str2.2
                0x000000000001f463        0xa /tmp/UiApp.dll.XMj2sU.ltrans1.ltrans.o
 .rodata.EfiBootManagerLoadOptionToVariable.str1.1
                0x000000000001f463       0x19 /tmp/UiApp.dll.XMj2sU.ltrans1.ltrans.o
 .rodata.BmGetFreeOptionNumber.str1.1
                0x000000000001f47c       0x92 /tmp/UiApp.dll.XMj2sU.ltrans1.ltrans.o
 .rodata.BmGetFreeOptionNumber.str2.2
                0x000000000001f50e       0x12 /tmp/UiApp.dll.XMj2sU.ltrans1.ltrans.o
 .rodata.EfiBootManagerRefreshAllBootOption.str1.1
                0x000000000001f50e       0x34 /tmp/UiApp.dll.XMj2sU.ltrans1.ltrans.o
 .rodata.EfiBootManagerRefreshAllBootOption.str2.2
                0x000000000001f542        0xc /tmp/UiApp.dll.XMj2sU.ltrans1.ltrans.o
 .rodata.BmGetNextLoadOptionDevicePath.str1.1
                0x000000000001f54e       0x19 /tmp/UiApp.dll.XMj2sU.ltrans1.ltrans.o
 *fill*         0x000000000001f567        0x1 
 .rodata.BmGetNextLoadOptionDevicePath.str2.2
                0x000000000001f568        0xa /tmp/UiApp.dll.XMj2sU.ltrans1.ltrans.o
 .rodata.EfiBootManagerBoot.str1.1
                0x000000000001f572      0x305 /tmp/UiApp.dll.XMj2sU.ltrans1.ltrans.o
                                        0x3cb (size before relaxing)
 *fill*         0x000000000001f877        0x1 
 .rodata.EfiBootManagerBoot.str2.2
                0x000000000001f878       0x44 /tmp/UiApp.dll.XMj2sU.ltrans1.ltrans.o
 .rodata.HiiGetSupportedLanguages.str1.1
                0x000000000001f8bc       0x51 /tmp/UiApp.dll.XMj2sU.ltrans1.ltrans.o
                                         0x6b (size before relaxing)
 .rodata.HiiUpdateForm.str1.1
                0x000000000001f90d       0x6e /tmp/UiApp.dll.XMj2sU.ltrans1.ltrans.o
 *fill*         0x000000000001f90d        0x1 
 .rodata.LibCallback.str2.2
                0x000000000001f90e        0xa /tmp/UiApp.dll.XMj2sU.ltrans1.ltrans.o
 .rodata.str2.2
                0x000000000001f918       0xb2 /tmp/UiApp.dll.XMj2sU.ltrans1.ltrans.o
                                         0xec (size before relaxing)
 .rodata.__FUNCTION__.17457
                0x000000000001f9ca       0x17 /tmp/UiApp.dll.XMj2sU.ltrans1.ltrans.o
 .rodata._gPcd_FixedAtBuild_PcdBootManagerMenuFile
                0x000000000001f9e1       0x10 /tmp/UiApp.dll.XMj2sU.ltrans1.ltrans.o
 *fill*         0x000000000001f9f1        0x7 
 .rodata.mBmBootDescriptionHandlers
                0x000000000001f9f8       0x30 /tmp/UiApp.dll.XMj2sU.ltrans1.ltrans.o
 .rodata.mBmHealthStatusText
                0x000000000001fa28       0x30 /tmp/UiApp.dll.XMj2sU.ltrans1.ltrans.o
 .rodata.mConVarName
                0x000000000001fa58       0x30 /tmp/UiApp.dll.XMj2sU.ltrans1.ltrans.o
 .rodata.AsciiStrLen.str1.1
                0x000000000001fa88       0x7b /tmp/UiApp.dll.XMj2sU.ltrans2.ltrans.o
                                         0x92 (size before relaxing)
 .rodata.DebugAssert.str1.1
                0x000000000001fb03        0x6 /tmp/UiApp.dll.XMj2sU.ltrans2.ltrans.o
                                         0x1e (size before relaxing)
 .rodata.SetDevicePathNodeLength.str1.1
                0x000000000001fb09       0xa1 /tmp/UiApp.dll.XMj2sU.ltrans2.ltrans.o
 .rodata.DevicePathNodeLength.str1.1
                0x000000000001fbaa       0x15 /tmp/UiApp.dll.XMj2sU.ltrans2.ltrans.o
 .rodata.SPrintLength.str1.1
                0x000000000001fbaa       0x71 /tmp/UiApp.dll.XMj2sU.ltrans2.ltrans.o
 .rodata.UnicodeValueToStringS.str1.1
                0x000000000001fc1b       0xa2 /tmp/UiApp.dll.XMj2sU.ltrans2.ltrans.o
                                        0x10d (size before relaxing)
 .rodata.UnicodeVSPrint.str1.1
                0x000000000001fcbd       0x28 /tmp/UiApp.dll.XMj2sU.ltrans2.ltrans.o
 .rodata.HiiRemovePackages.str1.1
                0x000000000001fce5       0x9b /tmp/UiApp.dll.XMj2sU.ltrans2.ltrans.o
 .rodata.FreePool.str1.1
                0x000000000001fce5       0x60 /tmp/UiApp.dll.XMj2sU.ltrans2.ltrans.o
 .rodata.HiiFreeOpCodeHandle.str1.1
                0x000000000001fd45       0x60 /tmp/UiApp.dll.XMj2sU.ltrans2.ltrans.o
                                         0x1d (size before relaxing)
 .rodata.GetVariable2.str1.1
                0x000000000001fd45       0x5d /tmp/UiApp.dll.XMj2sU.ltrans2.ltrans.o
                                         0xa1 (size before relaxing)
 .rodata.FreePages.str1.1
                0x000000000001fda2        0xb /tmp/UiApp.dll.XMj2sU.ltrans2.ltrans.o
 .rodata.GetPcdProtocol.str1.1
                0x000000000001fdad       0x5d /tmp/UiApp.dll.XMj2sU.ltrans2.ltrans.o
 .rodata.UiSetConsoleMode.str1.1
                0x000000000001fe0a       0x4e /tmp/UiApp.dll.XMj2sU.ltrans2.ltrans.o
 .rodata.AsciiStrnCmp.str1.1
                0x000000000001fe58       0x70 /tmp/UiApp.dll.XMj2sU.ltrans2.ltrans.o
 .rodata.StrLen.str1.1
                0x000000000001fec8       0x3a /tmp/UiApp.dll.XMj2sU.ltrans2.ltrans.o
                                         0x5d (size before relaxing)
 .rodata.StrStr.str1.1
                0x000000000001ff02       0x32 /tmp/UiApp.dll.XMj2sU.ltrans2.ltrans.o
 .rodata.StrnCmp.str1.1
                0x000000000001ff34       0x72 /tmp/UiApp.dll.XMj2sU.ltrans2.ltrans.o
 .rodata.InternalHiiCompareSubString.str1.1
                0x000000000001ffa6       0x39 /tmp/UiApp.dll.XMj2sU.ltrans2.ltrans.o
 .rodata.AsciiStrToUnicodeStrS.str1.1
                0x000000000001ffdf      0x100 /tmp/UiApp.dll.XMj2sU.ltrans2.ltrans.o
                                        0x16f (size before relaxing)
 .rodata.StrCatS.str1.1
                0x00000000000200df       0x23 /tmp/UiApp.dll.XMj2sU.ltrans2.ltrans.o
                                         0x9f (size before relaxing)
 .rodata.StrnCpyS.str1.1
                0x0000000000020102       0x3f /tmp/UiApp.dll.XMj2sU.ltrans2.ltrans.o
 .rodata.CopyMem.str1.1
                0x0000000000020102       0x57 /tmp/UiApp.dll.XMj2sU.ltrans2.ltrans.o
                                         0xd8 (size before relaxing)
 .rodata.GetBestLanguage.str1.1
                0x0000000000020159       0x23 /tmp/UiApp.dll.XMj2sU.ltrans2.ltrans.o
 .rodata.InternalHiiGrowOpCodeHandle.str1.1
                0x000000000002017c       0x17 /tmp/UiApp.dll.XMj2sU.ltrans2.ltrans.o
 .rodata.InternalHiiAppendOpCodes.str1.1
                0x000000000002017c       0x3a /tmp/UiApp.dll.XMj2sU.ltrans2.ltrans.o
 .rodata.InternalHiiCreateOpCodeExtended.str1.1
                0x00000000000201b6       0x25 /tmp/UiApp.dll.XMj2sU.ltrans2.ltrans.o
 .rodata.UefiDevicePathLibCatPrint.str1.1
                0x00000000000201db       0x70 /tmp/UiApp.dll.XMj2sU.ltrans2.ltrans.o
 *fill*         0x000000000002024b        0x1 
 .rodata.DevPathToTextNodeGeneric.str2.2
                0x000000000002024c       0x22 /tmp/UiApp.dll.XMj2sU.ltrans2.ltrans.o
                                         0x34 (size before relaxing)
 .rodata.DevPathToTextBBS.str2.2
                0x000000000002026e       0x2c /tmp/UiApp.dll.XMj2sU.ltrans2.ltrans.o
                                         0x3a (size before relaxing)
 .rodata.DevPathRelativeOffsetRange.str2.2
                0x000000000002029a       0x28 /tmp/UiApp.dll.XMj2sU.ltrans2.ltrans.o
 .rodata.DevPathToTextFvFile.str2.2
                0x00000000000202c2       0x16 /tmp/UiApp.dll.XMj2sU.ltrans2.ltrans.o
 .rodata.DevPathToTextFv.str2.2
                0x00000000000202d8        0xe /tmp/UiApp.dll.XMj2sU.ltrans2.ltrans.o
 .rodata.DevPathToTextMediaProtocol.str2.2
                0x00000000000202e6       0x14 /tmp/UiApp.dll.XMj2sU.ltrans2.ltrans.o
 .rodata.DevPathToTextFilePath.str2.2
                0x00000000000202fa       0x14 /tmp/UiApp.dll.XMj2sU.ltrans2.ltrans.o
                                          0x6 (size before relaxing)
 .rodata.DevPathToTextCDROM.str2.2
                0x00000000000202fa       0x48 /tmp/UiApp.dll.XMj2sU.ltrans2.ltrans.o
 .rodata.DevPathToTextHardDrive.str2.2
                0x0000000000020342       0x64 /tmp/UiApp.dll.XMj2sU.ltrans2.ltrans.o
                                         0x7e (size before relaxing)
 .rodata.DevPathToTextUri.str1.1
                0x00000000000203a6       0x17 /tmp/UiApp.dll.XMj2sU.ltrans2.ltrans.o
 *fill*         0x00000000000203bd        0x1 
 .rodata.DevPathToTextUri.str2.2
                0x00000000000203be       0x10 /tmp/UiApp.dll.XMj2sU.ltrans2.ltrans.o
 .rodata.DevPathToTextBluetoothLE.str2.2
                0x00000000000203ce       0x5a /tmp/UiApp.dll.XMj2sU.ltrans2.ltrans.o
 .rodata.DevPathToTextWiFi.str2.2
                0x0000000000020428       0x14 /tmp/UiApp.dll.XMj2sU.ltrans2.ltrans.o
 .rodata.DevPathToTextBluetooth.str2.2
                0x000000000002043c       0x48 /tmp/UiApp.dll.XMj2sU.ltrans2.ltrans.o
 .rodata.DevPathToTextVlan.str2.2
                0x0000000000020484       0x12 /tmp/UiApp.dll.XMj2sU.ltrans2.ltrans.o
 .rodata.DevPathToTextiSCSI.str2.2
                0x0000000000020496       0x76 /tmp/UiApp.dll.XMj2sU.ltrans2.ltrans.o
                                         0x90 (size before relaxing)
 .rodata.DevPathToTextUart.str2.2
                0x000000000002050c       0x5c /tmp/UiApp.dll.XMj2sU.ltrans2.ltrans.o
                                         0x74 (size before relaxing)
 .rodata.DevPathToTextUart
                0x0000000000020568        0x4 /tmp/UiApp.dll.XMj2sU.ltrans2.ltrans.o
 .rodata.DevPathToTextInfiniBand.str2.2
                0x000000000002056c       0x4c /tmp/UiApp.dll.XMj2sU.ltrans2.ltrans.o
 .rodata.CatIPv6Address.str2.2
                0x00000000000205b8       0x90 /tmp/UiApp.dll.XMj2sU.ltrans2.ltrans.o
 .rodata.CatIPv4Address.str2.2
                0x0000000000020648       0x18 /tmp/UiApp.dll.XMj2sU.ltrans2.ltrans.o
 .rodata.DevPathToTextDns.str2.2
                0x0000000000020660        0xa /tmp/UiApp.dll.XMj2sU.ltrans2.ltrans.o
 .rodata.CatNetworkProtocol.str2.2
                0x000000000002066a        0x8 /tmp/UiApp.dll.XMj2sU.ltrans2.ltrans.o
                                         0x12 (size before relaxing)
 .rodata.DevPathToTextIPv6.str2.2
                0x0000000000020672       0x80 /tmp/UiApp.dll.XMj2sU.ltrans2.ltrans.o
                                         0x8e (size before relaxing)
 .rodata.DevPathToTextIPv4.str2.2
                0x00000000000206f2       0x24 /tmp/UiApp.dll.XMj2sU.ltrans2.ltrans.o
 .rodata.DevPathToTextMacAddr.str2.2
                0x0000000000020716        0xa /tmp/UiApp.dll.XMj2sU.ltrans2.ltrans.o
 .rodata.DevPathToTextI2O.str2.2
                0x0000000000020720       0x14 /tmp/UiApp.dll.XMj2sU.ltrans2.ltrans.o
 .rodata.DevPathToTextSata.str2.2
                0x0000000000020734       0x2a /tmp/UiApp.dll.XMj2sU.ltrans2.ltrans.o
 .rodata.DevPathToTextUsbClass.str2.2
                0x000000000002075e      0x250 /tmp/UiApp.dll.XMj2sU.ltrans2.ltrans.o
 *fill*         0x00000000000209ae        0x2 
 .rodata.DevPathToTextUsbClass
                0x00000000000209b0        0xe /tmp/UiApp.dll.XMj2sU.ltrans2.ltrans.o
 .rodata.DevPathToTextLogicalUnit.str2.2
                0x00000000000209be       0x16 /tmp/UiApp.dll.XMj2sU.ltrans2.ltrans.o
 .rodata.DevPathToTextUsb.str2.2
                0x00000000000209d4       0x1e /tmp/UiApp.dll.XMj2sU.ltrans2.ltrans.o
 .rodata.DevPathToText1394.str2.2
                0x00000000000209f2       0x1c /tmp/UiApp.dll.XMj2sU.ltrans2.ltrans.o
 .rodata.DevPathToTextEmmc.str2.2
                0x0000000000020a0e       0x16 /tmp/UiApp.dll.XMj2sU.ltrans2.ltrans.o
 .rodata.DevPathToTextSd.str2.2
                0x0000000000020a24       0x12 /tmp/UiApp.dll.XMj2sU.ltrans2.ltrans.o
 .rodata.DevPathToTextUfs.str2.2
                0x0000000000020a36       0x1e /tmp/UiApp.dll.XMj2sU.ltrans2.ltrans.o
 .rodata.DevPathToTextNVMe.str2.2
                0x0000000000020a54       0x66 /tmp/UiApp.dll.XMj2sU.ltrans2.ltrans.o
 .rodata.DevPathToTextSasEx.str2.2
                0x0000000000020aba       0xb4 /tmp/UiApp.dll.XMj2sU.ltrans2.ltrans.o
                                         0xc0 (size before relaxing)
 .rodata.DevPathToTextFibreEx.str2.2
                0x0000000000020b6e       0x16 /tmp/UiApp.dll.XMj2sU.ltrans2.ltrans.o
 .rodata.DevPathToTextFibre.str2.2
                0x0000000000020b84       0x26 /tmp/UiApp.dll.XMj2sU.ltrans2.ltrans.o
 .rodata.DevPathToTextScsi.str2.2
                0x0000000000020baa       0x20 /tmp/UiApp.dll.XMj2sU.ltrans2.ltrans.o
 .rodata.DevPathToTextAtapi.str2.2
                0x0000000000020bca       0x72 /tmp/UiApp.dll.XMj2sU.ltrans2.ltrans.o
 .rodata.DevPathToTextAcpiAdr.str2.2
                0x0000000000020c3c       0x26 /tmp/UiApp.dll.XMj2sU.ltrans2.ltrans.o
 .rodata.DevPathToTextAcpiEx.str2.2
                0x0000000000020c62      0x12c /tmp/UiApp.dll.XMj2sU.ltrans2.ltrans.o
                                        0x148 (size before relaxing)
 .rodata.DevPathToTextAcpi.str2.2
                0x0000000000020d8e       0xc2 /tmp/UiApp.dll.XMj2sU.ltrans2.ltrans.o
 .rodata.DevPathToTextBmc.str2.2
                0x0000000000020e50       0x20 /tmp/UiApp.dll.XMj2sU.ltrans2.ltrans.o
 .rodata.DevPathToTextController.str2.2
                0x0000000000020e70       0x16 /tmp/UiApp.dll.XMj2sU.ltrans2.ltrans.o
 .rodata.DevPathToTextMemMap.str2.2
                0x0000000000020e86       0x3e /tmp/UiApp.dll.XMj2sU.ltrans2.ltrans.o
 .rodata.DevPathToTextPccard.str2.2
                0x0000000000020ec4       0x1a /tmp/UiApp.dll.XMj2sU.ltrans2.ltrans.o
 .rodata.DevPathToTextPci.str2.2
                0x0000000000020ede       0x1e /tmp/UiApp.dll.XMj2sU.ltrans2.ltrans.o
 .rodata.AllocateCopyPool.str1.1
                0x0000000000020efc       0x3f /tmp/UiApp.dll.XMj2sU.ltrans2.ltrans.o
 .rodata.DevPathToTextUsbWWID.str1.1
                0x0000000000020f3b       0x17 /tmp/UiApp.dll.XMj2sU.ltrans2.ltrans.o
 .rodata.DevPathToTextUsbWWID.str2.2
                0x0000000000020f52       0x3a /tmp/UiApp.dll.XMj2sU.ltrans2.ltrans.o
 .rodata.GetNextLanguage.str1.1
                0x0000000000020f8c       0x90 /tmp/UiApp.dll.XMj2sU.ltrans2.ltrans.o
 .rodata.FrontPageCallback.str2.2
                0x000000000002101c       0x1a /tmp/UiApp.dll.XMj2sU.ltrans2.ltrans.o
 .rodata.FrontPageCallback.str1.1
                0x000000000002101c       0x12 /tmp/UiApp.dll.XMj2sU.ltrans2.ltrans.o
 .rodata.CompareGuid.str1.1
                0x000000000002101c       0x83 /tmp/UiApp.dll.XMj2sU.ltrans2.ltrans.o
 .rodata.GetHobList.str1.1
                0x000000000002109f       0x19 /tmp/UiApp.dll.XMj2sU.ltrans2.ltrans.o
                                         0x5e (size before relaxing)
 .rodata.DevPathToTextRamDisk.str2.2
                0x00000000000210b8       0xca /tmp/UiApp.dll.XMj2sU.ltrans2.ltrans.o
                                        0x136 (size before relaxing)
 .rodata.DevPathToTextVendor.str2.2
                0x0000000000021182      0x154 /tmp/UiApp.dll.XMj2sU.ltrans2.ltrans.o
                                        0x166 (size before relaxing)
 .rodata.CopyGuid.str1.1
                0x00000000000212d6       0x3b /tmp/UiApp.dll.XMj2sU.ltrans2.ltrans.o
 .rodata.__stack_chk_fail.str1.1
                0x0000000000021311       0x2e /tmp/UiApp.dll.XMj2sU.ltrans2.ltrans.o
 .rodata.ProcessLibraryConstructorList.str1.1
                0x000000000002133f      0x3f1 /tmp/UiApp.dll.XMj2sU.ltrans2.ltrans.o
                                        0x6b1 (size before relaxing)
 .rodata.ProcessLibraryConstructorList.str2.2
                0x0000000000021730       0x28 /tmp/UiApp.dll.XMj2sU.ltrans2.ltrans.o
 .rodata._ModuleEntryPoint.str1.1
                0x0000000000021730       0xf5 /tmp/UiApp.dll.XMj2sU.ltrans2.ltrans.o
                                        0x206 (size before relaxing)
 *fill*         0x0000000000021825        0x1 
 .rodata._ModuleEntryPoint.str2.2
                0x0000000000021826       0x3e /tmp/UiApp.dll.XMj2sU.ltrans2.ltrans.o
                                         0xc8 (size before relaxing)
 .rodata.str2.2
                0x0000000000021864       0x56 /tmp/UiApp.dll.XMj2sU.ltrans2.ltrans.o
                                         0x96 (size before relaxing)
 .rodata.CSWTCH.42
                0x00000000000218ba        0x6 /tmp/UiApp.dll.XMj2sU.ltrans2.ltrans.o
 .rodata.CSWTCH.58
                0x00000000000218c0       0x30 /tmp/UiApp.dll.XMj2sU.ltrans2.ltrans.o
 .rodata._gPcd_FixedAtBuild_PcdFirmwareVersionString
                0x00000000000218f0        0xc /tmp/UiApp.dll.XMj2sU.ltrans2.ltrans.o
 .rodata._gPcd_FixedAtBuild_PcdUefiVariableDefaultPlatformLangCodes
                0x00000000000218fc       0x12 /tmp/UiApp.dll.XMj2sU.ltrans2.ltrans.o
 .rodata.mEndOfPakageList
                0x000000000002190e        0x4 /tmp/UiApp.dll.XMj2sU.ltrans2.ltrans.o
 .rodata.mHexStr
                0x0000000000021912       0x10 /tmp/UiApp.dll.XMj2sU.ltrans2.ltrans.o
 .rodata.mHiiDefaultTypeToWidth
                0x0000000000021922        0x8 /tmp/UiApp.dll.XMj2sU.ltrans2.ltrans.o
 .rodata.mUefiDevicePathLibEndDevicePath
                0x000000000002192a        0x4 /tmp/UiApp.dll.XMj2sU.ltrans2.ltrans.o
 *fill*         0x000000000002192e        0x2 
 .rodata.mUefiDevicePathLibToTextTableGeneric
                0x0000000000021930       0x60 /tmp/UiApp.dll.XMj2sU.ltrans2.ltrans.o
 *(.got .got.*)
 .got           0x0000000000021990        0x8 /home/j0sh1x/Lg_G7_ThinQ_Edk2/edk2/ArmPkg/Library/GccLto/liblto-aarch64.a
                0x0000000000021990                _GLOBAL_OFFSET_TABLE_
 .got.plt       0x0000000000021998       0x18 /home/j0sh1x/Lg_G7_ThinQ_Edk2/edk2/ArmPkg/Library/GccLto/liblto-aarch64.a
 *:AutoGen.obj(.data.g*Guid)

.plt            0x00000000000219b0        0x0
 .plt           0x00000000000219b0        0x0 /home/j0sh1x/Lg_G7_ThinQ_Edk2/edk2/ArmPkg/Library/GccLto/liblto-aarch64.a

.data           0x0000000000022000     0x717c
 *(.data .data.* .gnu.linkonce.d.*)
 .data.rel.ro   0x0000000000022000        0x0 /home/j0sh1x/Lg_G7_ThinQ_Edk2/edk2/ArmPkg/Library/GccLto/liblto-aarch64.a
 .data.BootOptionMenu
                0x0000000000022000       0x20 /tmp/UiApp.dll.XMj2sU.ltrans0.ltrans.o
                0x0000000000022000                BootOptionMenu
 .data.ConsoleErrMenu
                0x0000000000022020       0x20 /tmp/UiApp.dll.XMj2sU.ltrans0.ltrans.o
                0x0000000000022020                ConsoleErrMenu
 .data.ConsoleInpMenu
                0x0000000000022040       0x20 /tmp/UiApp.dll.XMj2sU.ltrans0.ltrans.o
                0x0000000000022040                ConsoleInpMenu
 .data.ConsoleOutMenu
                0x0000000000022060       0x20 /tmp/UiApp.dll.XMj2sU.ltrans0.ltrans.o
                0x0000000000022060                ConsoleOutMenu
 .data.DriverMenu
                0x0000000000022080       0x20 /tmp/UiApp.dll.XMj2sU.ltrans0.ltrans.o
                0x0000000000022080                DriverMenu
 .data.DriverOptionMenu
                0x00000000000220a0       0x20 /tmp/UiApp.dll.XMj2sU.ltrans0.ltrans.o
                0x00000000000220a0                DriverOptionMenu
 .data.FileExplorerGuid
                0x00000000000220c0       0x10 /tmp/UiApp.dll.XMj2sU.ltrans0.ltrans.o
                0x00000000000220c0                FileExplorerGuid
 .data.TerminalMenu
                0x00000000000220d0       0x20 /tmp/UiApp.dll.XMj2sU.ltrans0.ltrans.o
                0x00000000000220d0                TerminalMenu
 .data.TerminalTypeGuid
                0x00000000000220f0       0x50 /tmp/UiApp.dll.XMj2sU.ltrans0.ltrans.o
                0x00000000000220f0                TerminalTypeGuid
 .data._gPcd_BinaryPatch_PcdConOutColumn
                0x0000000000022140        0x4 /tmp/UiApp.dll.XMj2sU.ltrans0.ltrans.o
                0x0000000000022140                _gPcd_BinaryPatch_PcdConOutColumn
 .data._gPcd_BinaryPatch_PcdConOutRow
                0x0000000000022144        0x4 /tmp/UiApp.dll.XMj2sU.ltrans0.ltrans.o
                0x0000000000022144                _gPcd_BinaryPatch_PcdConOutRow
 .data._gPcd_BinaryPatch_PcdSetupConOutColumn
                0x0000000000022148        0x4 /tmp/UiApp.dll.XMj2sU.ltrans0.ltrans.o
                0x0000000000022148                _gPcd_BinaryPatch_PcdSetupConOutColumn
 .data._gPcd_BinaryPatch_PcdSetupConOutRow
                0x000000000002214c        0x4 /tmp/UiApp.dll.XMj2sU.ltrans0.ltrans.o
                0x000000000002214c                _gPcd_BinaryPatch_PcdSetupConOutRow
 .data._gPcd_BinaryPatch_PcdVideoHorizontalResolution
                0x0000000000022150        0x4 /tmp/UiApp.dll.XMj2sU.ltrans0.ltrans.o
                0x0000000000022150                _gPcd_BinaryPatch_PcdVideoHorizontalResolution
 .data._gPcd_BinaryPatch_PcdVideoVerticalResolution
                0x0000000000022154        0x4 /tmp/UiApp.dll.XMj2sU.ltrans0.ltrans.o
                0x0000000000022154                _gPcd_BinaryPatch_PcdVideoVerticalResolution
 .data.font5x12
                0x0000000000022158      0x300 /tmp/UiApp.dll.XMj2sU.ltrans0.ltrans.o
 .data.gBootMaintenancePrivate
                0x0000000000022458     0x1c60 /tmp/UiApp.dll.XMj2sU.ltrans0.ltrans.o
                0x0000000000022458                gBootMaintenancePrivate
 .data.gBootManagerPrivate
                0x00000000000240b8       0x30 /tmp/UiApp.dll.XMj2sU.ltrans0.ltrans.o
                0x00000000000240b8                gBootManagerPrivate
 .data.gDeviceManagerPrivate
                0x00000000000240e8       0x38 /tmp/UiApp.dll.XMj2sU.ltrans0.ltrans.o
                0x00000000000240e8                gDeviceManagerPrivate
 .data.gEdkiiFormBrowserEx2ProtocolGuid
                0x0000000000024120       0x10 /tmp/UiApp.dll.XMj2sU.ltrans0.ltrans.o
 .data.gEdkiiPerformanceMeasurementProtocolGuid
                0x0000000000024130       0x10 /tmp/UiApp.dll.XMj2sU.ltrans0.ltrans.o
 .data.gEfiCallerIdGuid
                0x0000000000024140       0x10 /tmp/UiApp.dll.XMj2sU.ltrans0.ltrans.o
                0x0000000000024140                gEfiCallerIdGuid
 .data.gEfiDevicePathProtocolGuid
                0x0000000000024150       0x10 /tmp/UiApp.dll.XMj2sU.ltrans0.ltrans.o
                0x0000000000024150                gEfiDevicePathProtocolGuid
 .data.gEfiDevicePathToTextProtocolGuid
                0x0000000000024160       0x10 /tmp/UiApp.dll.XMj2sU.ltrans0.ltrans.o
 .data.gEfiFileSystemVolumeLabelInfoIdGuid
                0x0000000000024170       0x10 /tmp/UiApp.dll.XMj2sU.ltrans0.ltrans.o
 .data.gEfiFormBrowser2ProtocolGuid
                0x0000000000024180       0x10 /tmp/UiApp.dll.XMj2sU.ltrans0.ltrans.o
                0x0000000000024180                gEfiFormBrowser2ProtocolGuid
 .data.gEfiGlobalVariableGuid
                0x0000000000024190       0x10 /tmp/UiApp.dll.XMj2sU.ltrans0.ltrans.o
                0x0000000000024190                gEfiGlobalVariableGuid
 .data.gEfiGraphicsOutputProtocolGuid
                0x00000000000241a0       0x10 /tmp/UiApp.dll.XMj2sU.ltrans0.ltrans.o
                0x00000000000241a0                gEfiGraphicsOutputProtocolGuid
 .data.gEfiHiiConfigRoutingProtocolGuid
                0x00000000000241b0       0x10 /tmp/UiApp.dll.XMj2sU.ltrans0.ltrans.o
                0x00000000000241b0                gEfiHiiConfigRoutingProtocolGuid
 .data.gEfiHiiPlatformSetupFormsetGuid
                0x00000000000241c0       0x10 /tmp/UiApp.dll.XMj2sU.ltrans0.ltrans.o
 .data.gEfiIfrBootMaintenanceGuid
                0x00000000000241d0       0x10 /tmp/UiApp.dll.XMj2sU.ltrans0.ltrans.o
 .data.gEfiIfrTianoGuid
                0x00000000000241e0       0x10 /tmp/UiApp.dll.XMj2sU.ltrans0.ltrans.o
                0x00000000000241e0                gEfiIfrTianoGuid
 .data.gEfiPciIoProtocolGuid
                0x00000000000241f0       0x10 /tmp/UiApp.dll.XMj2sU.ltrans0.ltrans.o
                0x00000000000241f0                gEfiPciIoProtocolGuid
 .data.gEfiSimpleFileSystemProtocolGuid
                0x0000000000024200       0x10 /tmp/UiApp.dll.XMj2sU.ltrans0.ltrans.o
                0x0000000000024200                gEfiSimpleFileSystemProtocolGuid
 .data.gEfiSimpleTextOutProtocolGuid
                0x0000000000024210       0x10 /tmp/UiApp.dll.XMj2sU.ltrans0.ltrans.o
                0x0000000000024210                gEfiSimpleTextOutProtocolGuid
 .data.gEfiStatusCodeSpecificDataGuid
                0x0000000000024220       0x10 /tmp/UiApp.dll.XMj2sU.ltrans0.ltrans.o
 .data.gFileExplorerPrivate
                0x0000000000024230       0x58 /tmp/UiApp.dll.XMj2sU.ltrans0.ltrans.o
                0x0000000000024230                gFileExplorerPrivate
 .data.mBmHotkeyLock
                0x0000000000024288       0x18 /tmp/UiApp.dll.XMj2sU.ltrans0.ltrans.o
                0x0000000000024288                mBmHotkeyLock
 .data.mBootMaintGuid
                0x00000000000242a0       0x10 /tmp/UiApp.dll.XMj2sU.ltrans0.ltrans.o
                0x00000000000242a0                mBootMaintGuid
 .data.mBootMaintStorageName
                0x00000000000242b0       0x10 /tmp/UiApp.dll.XMj2sU.ltrans0.ltrans.o
 .data.mBootManagerGuid
                0x00000000000242c0       0x10 /tmp/UiApp.dll.XMj2sU.ltrans0.ltrans.o
                0x00000000000242c0                mBootManagerGuid
 .data.mDeviceManagerGuid
                0x00000000000242d0       0x10 /tmp/UiApp.dll.XMj2sU.ltrans0.ltrans.o
                0x00000000000242d0                mDeviceManagerGuid
 .data.mFsOptionMenu
                0x00000000000242e0       0x28 /tmp/UiApp.dll.XMj2sU.ltrans0.ltrans.o
 .data.gEdkiiStatusCodeDataTypeVariableGuid
                0x0000000000024308       0x10 /tmp/UiApp.dll.XMj2sU.ltrans1.ltrans.o
 .data.gEdkiiVariableLockProtocolGuid
                0x0000000000024318       0x10 /tmp/UiApp.dll.XMj2sU.ltrans1.ltrans.o
 .data.gEfiBlockIoProtocolGuid
                0x0000000000024328       0x10 /tmp/UiApp.dll.XMj2sU.ltrans1.ltrans.o
 .data.gEfiBootLogoProtocolGuid
                0x0000000000024338       0x10 /tmp/UiApp.dll.XMj2sU.ltrans1.ltrans.o
                0x0000000000024338                gEfiBootLogoProtocolGuid
 .data.gEfiComponentName2ProtocolGuid
                0x0000000000024348       0x10 /tmp/UiApp.dll.XMj2sU.ltrans1.ltrans.o
 .data.gEfiComponentNameProtocolGuid
                0x0000000000024358       0x10 /tmp/UiApp.dll.XMj2sU.ltrans1.ltrans.o
 .data.gEfiDiskInfoAhciInterfaceGuid
                0x0000000000024368       0x10 /tmp/UiApp.dll.XMj2sU.ltrans1.ltrans.o
 .data.gEfiDiskInfoIdeInterfaceGuid
                0x0000000000024378       0x10 /tmp/UiApp.dll.XMj2sU.ltrans1.ltrans.o
 .data.gEfiDiskInfoProtocolGuid
                0x0000000000024388       0x10 /tmp/UiApp.dll.XMj2sU.ltrans1.ltrans.o
 .data.gEfiDiskInfoScsiInterfaceGuid
                0x0000000000024398       0x10 /tmp/UiApp.dll.XMj2sU.ltrans1.ltrans.o
 .data.gEfiDiskInfoSdMmcInterfaceGuid
                0x00000000000243a8       0x10 /tmp/UiApp.dll.XMj2sU.ltrans1.ltrans.o
 .data.gEfiDriverHealthProtocolGuid
                0x00000000000243b8       0x10 /tmp/UiApp.dll.XMj2sU.ltrans1.ltrans.o
 .data.gEfiEventReadyToBootGuid
                0x00000000000243c8       0x10 /tmp/UiApp.dll.XMj2sU.ltrans1.ltrans.o
 .data.gEfiFileInfoGuid
                0x00000000000243d8       0x10 /tmp/UiApp.dll.XMj2sU.ltrans1.ltrans.o
 .data.gEfiFirmwareVolume2ProtocolGuid
                0x00000000000243e8       0x10 /tmp/UiApp.dll.XMj2sU.ltrans1.ltrans.o
 .data.gEfiLoadFileProtocolGuid
                0x00000000000243f8       0x10 /tmp/UiApp.dll.XMj2sU.ltrans1.ltrans.o
                0x00000000000243f8                gEfiLoadFileProtocolGuid
 .data.gEfiLoadedImageProtocolGuid
                0x0000000000024408       0x10 /tmp/UiApp.dll.XMj2sU.ltrans1.ltrans.o
 .data.gEfiMemoryTypeInformationGuid
                0x0000000000024418       0x10 /tmp/UiApp.dll.XMj2sU.ltrans1.ltrans.o
 .data.gEfiNvmExpressPassThruProtocolGuid
                0x0000000000024428       0x10 /tmp/UiApp.dll.XMj2sU.ltrans1.ltrans.o
 .data.gEfiRamDiskProtocolGuid
                0x0000000000024438       0x10 /tmp/UiApp.dll.XMj2sU.ltrans1.ltrans.o
 .data.gEfiSimpleTextInProtocolGuid
                0x0000000000024448       0x10 /tmp/UiApp.dll.XMj2sU.ltrans1.ltrans.o
 .data.gEfiSimpleTextInputExProtocolGuid
                0x0000000000024458       0x10 /tmp/UiApp.dll.XMj2sU.ltrans1.ltrans.o
 .data.gEfiStatusCodeRuntimeProtocolGuid
                0x0000000000024468       0x10 /tmp/UiApp.dll.XMj2sU.ltrans1.ltrans.o
 .data.gEfiUsbIoProtocolGuid
                0x0000000000024478       0x10 /tmp/UiApp.dll.XMj2sU.ltrans1.ltrans.o
 .data.mBmAutoCreateBootOptionGuid
                0x0000000000024488       0x10 /tmp/UiApp.dll.XMj2sU.ltrans1.ltrans.o
 .data.mBmHardDriveBootVariableGuid
                0x0000000000024498       0x10 /tmp/UiApp.dll.XMj2sU.ltrans1.ltrans.o
 .data.mBmHotkeyBootOption
                0x00000000000244a8       0x58 /tmp/UiApp.dll.XMj2sU.ltrans1.ltrans.o
 .data.mBmHotkeyList
                0x0000000000024500       0x10 /tmp/UiApp.dll.XMj2sU.ltrans1.ltrans.o
 .data.mBmUefiPrefix
                0x0000000000024510        0xc /tmp/UiApp.dll.XMj2sU.ltrans1.ltrans.o
 *fill*         0x000000000002451c        0x4 
 .data.mNewFileQuestionId
                0x0000000000024520        0x8 /tmp/UiApp.dll.XMj2sU.ltrans1.ltrans.o
 .data.mNewFolderQuestionId
                0x0000000000024528        0x8 /tmp/UiApp.dll.XMj2sU.ltrans1.ltrans.o
 .data.mPlatformBootDescriptionHandlers
                0x0000000000024530       0x10 /tmp/UiApp.dll.XMj2sU.ltrans1.ltrans.o
 .data.BootMaintenanceManagerBin
                0x0000000000024540      0x594 /tmp/UiApp.dll.XMj2sU.ltrans2.ltrans.o
 .data.BootMaintenanceManagerUiLibStrings
                0x0000000000024ad4     0x1b4e /tmp/UiApp.dll.XMj2sU.ltrans2.ltrans.o
 .data.BootManagerUiLibStrings
                0x0000000000026622      0x434 /tmp/UiApp.dll.XMj2sU.ltrans2.ltrans.o
 .data.BootManagerVfrBin
                0x0000000000026a56       0xb3 /tmp/UiApp.dll.XMj2sU.ltrans2.ltrans.o
 .data.DeviceManagerUiLibStrings
                0x0000000000026b09      0x4b8 /tmp/UiApp.dll.XMj2sU.ltrans2.ltrans.o
 .data.DeviceManagerVfrBin
                0x0000000000026fc1      0x12d /tmp/UiApp.dll.XMj2sU.ltrans2.ltrans.o
 .data.FeHiiVendorDevicePath
                0x00000000000270ee       0x18 /tmp/UiApp.dll.XMj2sU.ltrans2.ltrans.o
 .data.FileExplorerLibStrings
                0x0000000000027106      0x81a /tmp/UiApp.dll.XMj2sU.ltrans2.ltrans.o
 .data.FileExplorerVfrBin
                0x0000000000027920       0xf9 /tmp/UiApp.dll.XMj2sU.ltrans2.ltrans.o
 .data.FrontPageVfrBin
                0x0000000000027a19      0x147 /tmp/UiApp.dll.XMj2sU.ltrans2.ltrans.o
 .data.UiAppStrings
                0x0000000000027b60      0x424 /tmp/UiApp.dll.XMj2sU.ltrans2.ltrans.o
 *fill*         0x0000000000027f84        0x4 
 .data.__stack_chk_guard
                0x0000000000027f88        0x8 /tmp/UiApp.dll.XMj2sU.ltrans2.ltrans.o
                0x0000000000027f88                __stack_chk_guard
 .data._gPcd_BinaryPatch_PcdSetupVideoHorizontalResolution
                0x0000000000027f90        0x4 /tmp/UiApp.dll.XMj2sU.ltrans2.ltrans.o
 .data._gPcd_BinaryPatch_PcdSetupVideoVerticalResolution
                0x0000000000027f94        0x4 /tmp/UiApp.dll.XMj2sU.ltrans2.ltrans.o
 .data.gEfiDebugPortProtocolGuid
                0x0000000000027f98       0x10 /tmp/UiApp.dll.XMj2sU.ltrans2.ltrans.o
 .data.gEfiDxeServicesTableGuid
                0x0000000000027fa8       0x10 /tmp/UiApp.dll.XMj2sU.ltrans2.ltrans.o
 .data.gEfiHiiConfigAccessProtocolGuid
                0x0000000000027fb8       0x10 /tmp/UiApp.dll.XMj2sU.ltrans2.ltrans.o
 .data.gEfiHiiDatabaseProtocolGuid
                0x0000000000027fc8       0x10 /tmp/UiApp.dll.XMj2sU.ltrans2.ltrans.o
 .data.gEfiHiiFontProtocolGuid
                0x0000000000027fd8       0x10 /tmp/UiApp.dll.XMj2sU.ltrans2.ltrans.o
 .data.gEfiHiiImageProtocolGuid
                0x0000000000027fe8       0x10 /tmp/UiApp.dll.XMj2sU.ltrans2.ltrans.o
 .data.gEfiHiiStringProtocolGuid
                0x0000000000027ff8       0x10 /tmp/UiApp.dll.XMj2sU.ltrans2.ltrans.o
 .data.gEfiHobListGuid
                0x0000000000028008       0x10 /tmp/UiApp.dll.XMj2sU.ltrans2.ltrans.o
 .data.gEfiIfrFrontPageGuid
                0x0000000000028018       0x10 /tmp/UiApp.dll.XMj2sU.ltrans2.ltrans.o
 .data.gEfiPcAnsiGuid
                0x0000000000028028       0x10 /tmp/UiApp.dll.XMj2sU.ltrans2.ltrans.o
 .data.gEfiPersistentVirtualCdGuid
                0x0000000000028038       0x10 /tmp/UiApp.dll.XMj2sU.ltrans2.ltrans.o
 .data.gEfiPersistentVirtualDiskGuid
                0x0000000000028048       0x10 /tmp/UiApp.dll.XMj2sU.ltrans2.ltrans.o
 .data.gEfiSasDevicePathGuid
                0x0000000000028058       0x10 /tmp/UiApp.dll.XMj2sU.ltrans2.ltrans.o
 .data.gEfiSerialIoProtocolGuid
                0x0000000000028068       0x10 /tmp/UiApp.dll.XMj2sU.ltrans2.ltrans.o
 .data.gEfiSmbiosProtocolGuid
                0x0000000000028078       0x10 /tmp/UiApp.dll.XMj2sU.ltrans2.ltrans.o
 .data.gEfiUartDevicePathGuid
                0x0000000000028088       0x10 /tmp/UiApp.dll.XMj2sU.ltrans2.ltrans.o
 .data.gEfiVT100Guid
                0x0000000000028098       0x10 /tmp/UiApp.dll.XMj2sU.ltrans2.ltrans.o
 .data.gEfiVT100PlusGuid
                0x00000000000280a8       0x10 /tmp/UiApp.dll.XMj2sU.ltrans2.ltrans.o
 .data.gEfiVTUTF8Guid
                0x00000000000280b8       0x10 /tmp/UiApp.dll.XMj2sU.ltrans2.ltrans.o
 .data.gEfiVirtualCdGuid
                0x00000000000280c8       0x10 /tmp/UiApp.dll.XMj2sU.ltrans2.ltrans.o
 .data.gEfiVirtualDiskGuid
                0x00000000000280d8       0x10 /tmp/UiApp.dll.XMj2sU.ltrans2.ltrans.o
 .data.gFrontPagePrivate
                0x00000000000280e8       0x38 /tmp/UiApp.dll.XMj2sU.ltrans2.ltrans.o
 .data.gPcdProtocolGuid
                0x0000000000028120       0x10 /tmp/UiApp.dll.XMj2sU.ltrans2.ltrans.o
 .data.mBmmHiiVendorDevicePath
                0x0000000000028130       0x18 /tmp/UiApp.dll.XMj2sU.ltrans2.ltrans.o
 .data.mBootManagerHiiVendorDevicePath
                0x0000000000028148       0x18 /tmp/UiApp.dll.XMj2sU.ltrans2.ltrans.o
 .data.mDeviceManagerHiiVendorDevicePath
                0x0000000000028160       0x18 /tmp/UiApp.dll.XMj2sU.ltrans2.ltrans.o
 .data.mFontBin
                0x0000000000028178      0xda0 /tmp/UiApp.dll.XMj2sU.ltrans2.ltrans.o
 .data.mFontPackageGuid
                0x0000000000028f18       0x10 /tmp/UiApp.dll.XMj2sU.ltrans2.ltrans.o
 .data.mFrontPageGuid
                0x0000000000028f28       0x10 /tmp/UiApp.dll.XMj2sU.ltrans2.ltrans.o
 .data.mFrontPageHiiVendorDevicePath
                0x0000000000028f38       0x18 /tmp/UiApp.dll.XMj2sU.ltrans2.ltrans.o
 .data.mUiStringPackGuid
                0x0000000000028f50       0x10 /tmp/UiApp.dll.XMj2sU.ltrans2.ltrans.o
 *(.bss .bss.*)
 .bss.gBS       0x0000000000028f60        0x8 /tmp/UiApp.dll.XMj2sU.ltrans0.ltrans.o
                0x0000000000028f60                gBS
 .bss.gHiiConfigRouting
                0x0000000000028f68        0x8 /tmp/UiApp.dll.XMj2sU.ltrans0.ltrans.o
                0x0000000000028f68                gHiiConfigRouting
 .bss.gHiiDatabase
                0x0000000000028f70        0x8 /tmp/UiApp.dll.XMj2sU.ltrans0.ltrans.o
                0x0000000000028f70                gHiiDatabase
 .bss.gHiiDriverList
                0x0000000000028f78        0x8 /tmp/UiApp.dll.XMj2sU.ltrans0.ltrans.o
 .bss.gHiiString
                0x0000000000028f80        0x8 /tmp/UiApp.dll.XMj2sU.ltrans0.ltrans.o
                0x0000000000028f80                gHiiString
 .bss.gRT       0x0000000000028f88        0x8 /tmp/UiApp.dll.XMj2sU.ltrans0.ltrans.o
                0x0000000000028f88                gRT
 .bss.gST       0x0000000000028f90        0x8 /tmp/UiApp.dll.XMj2sU.ltrans0.ltrans.o
                0x0000000000028f90                gST
 .bss.mBmBootHorizontalResolution
                0x0000000000028f98        0x4 /tmp/UiApp.dll.XMj2sU.ltrans0.ltrans.o
                0x0000000000028f98                mBmBootHorizontalResolution
 .bss.mBmBootTextModeColumn
                0x0000000000028f9c        0x4 /tmp/UiApp.dll.XMj2sU.ltrans0.ltrans.o
                0x0000000000028f9c                mBmBootTextModeColumn
 .bss.mBmBootTextModeRow
                0x0000000000028fa0        0x4 /tmp/UiApp.dll.XMj2sU.ltrans0.ltrans.o
                0x0000000000028fa0                mBmBootTextModeRow
 .bss.mBmBootVerticalResolution
                0x0000000000028fa4        0x4 /tmp/UiApp.dll.XMj2sU.ltrans0.ltrans.o
                0x0000000000028fa4                mBmBootVerticalResolution
 .bss.mBmSetupHorizontalResolution
                0x0000000000028fa8        0x4 /tmp/UiApp.dll.XMj2sU.ltrans0.ltrans.o
                0x0000000000028fa8                mBmSetupHorizontalResolution
 .bss.mBmSetupTextModeColumn
                0x0000000000028fac        0x4 /tmp/UiApp.dll.XMj2sU.ltrans0.ltrans.o
                0x0000000000028fac                mBmSetupTextModeColumn
 .bss.mBmSetupTextModeRow
                0x0000000000028fb0        0x4 /tmp/UiApp.dll.XMj2sU.ltrans0.ltrans.o
                0x0000000000028fb0                mBmSetupTextModeRow
 .bss.mBmSetupVerticalResolution
                0x0000000000028fb4        0x4 /tmp/UiApp.dll.XMj2sU.ltrans0.ltrans.o
                0x0000000000028fb4                mBmSetupVerticalResolution
 .bss.mBmmBootHorizontalResolution
                0x0000000000028fb8        0x4 /tmp/UiApp.dll.XMj2sU.ltrans0.ltrans.o
                0x0000000000028fb8                mBmmBootHorizontalResolution
 .bss.mBmmBootTextModeColumn
                0x0000000000028fbc        0x4 /tmp/UiApp.dll.XMj2sU.ltrans0.ltrans.o
                0x0000000000028fbc                mBmmBootTextModeColumn
 .bss.mBmmBootTextModeRow
                0x0000000000028fc0        0x4 /tmp/UiApp.dll.XMj2sU.ltrans0.ltrans.o
                0x0000000000028fc0                mBmmBootTextModeRow
 .bss.mBmmBootVerticalResolution
                0x0000000000028fc4        0x4 /tmp/UiApp.dll.XMj2sU.ltrans0.ltrans.o
                0x0000000000028fc4                mBmmBootVerticalResolution
 .bss.mBmmSetupHorizontalResolution
                0x0000000000028fc8        0x4 /tmp/UiApp.dll.XMj2sU.ltrans0.ltrans.o
                0x0000000000028fc8                mBmmSetupHorizontalResolution
 .bss.mBmmSetupTextModeColumn
                0x0000000000028fcc        0x4 /tmp/UiApp.dll.XMj2sU.ltrans0.ltrans.o
                0x0000000000028fcc                mBmmSetupTextModeColumn
 .bss.mBmmSetupTextModeRow
                0x0000000000028fd0        0x4 /tmp/UiApp.dll.XMj2sU.ltrans0.ltrans.o
                0x0000000000028fd0                mBmmSetupTextModeRow
 .bss.mBmmSetupVerticalResolution
                0x0000000000028fd4        0x4 /tmp/UiApp.dll.XMj2sU.ltrans0.ltrans.o
                0x0000000000028fd4                mBmmSetupVerticalResolution
 .bss.mEndOpCodeHandle
                0x0000000000028fd8        0x8 /tmp/UiApp.dll.XMj2sU.ltrans0.ltrans.o
                0x0000000000028fd8                mEndOpCodeHandle
 .bss.mFirstEnterBMMForm
                0x0000000000028fe0        0x1 /tmp/UiApp.dll.XMj2sU.ltrans0.ltrans.o
 *fill*         0x0000000000028fe1        0x1 
 .bss.mKeyInput
                0x0000000000028fe2        0x2 /tmp/UiApp.dll.XMj2sU.ltrans0.ltrans.o
 *fill*         0x0000000000028fe4        0x4 
 .bss.mMacDeviceList
                0x0000000000028fe8       0x18 /tmp/UiApp.dll.XMj2sU.ltrans0.ltrans.o
                0x0000000000028fe8                mMacDeviceList
 .bss.mPerformanceMeasurement
                0x0000000000029000        0x8 /tmp/UiApp.dll.XMj2sU.ltrans0.ltrans.o
                0x0000000000029000                mPerformanceMeasurement
 .bss.mQuestionIdUpdate
                0x0000000000029008        0x2 /tmp/UiApp.dll.XMj2sU.ltrans0.ltrans.o
                0x0000000000029008                mQuestionIdUpdate
 *fill*         0x000000000002900a        0x6 
 .bss.mReportStatusCodeLibStatusCodeProtocol
                0x0000000000029010        0x8 /tmp/UiApp.dll.XMj2sU.ltrans0.ltrans.o
                0x0000000000029010                mReportStatusCodeLibStatusCodeProtocol
 .bss.mSelectedMacAddrString
                0x0000000000029018        0x8 /tmp/UiApp.dll.XMj2sU.ltrans0.ltrans.o
                0x0000000000029018                mSelectedMacAddrString
 .bss.mStartLabel
                0x0000000000029020        0x8 /tmp/UiApp.dll.XMj2sU.ltrans0.ltrans.o
                0x0000000000029020                mStartLabel
 .bss.mStartOpCodeHandle
                0x0000000000029028        0x8 /tmp/UiApp.dll.XMj2sU.ltrans0.ltrans.o
                0x0000000000029028                mStartOpCodeHandle
 .bss.mUefiFormBrowser2
                0x0000000000029030        0x8 /tmp/UiApp.dll.XMj2sU.ltrans0.ltrans.o
 .bss.m_Color   0x0000000000029038       0x10 /tmp/UiApp.dll.XMj2sU.ltrans0.ltrans.o
                0x0000000000029038                m_Color
 .bss.m_Initialized
                0x0000000000029048        0x1 /tmp/UiApp.dll.XMj2sU.ltrans0.ltrans.o
                0x0000000000029048                m_Initialized
 *fill*         0x0000000000029049        0x7 
 .bss.m_MaxPosition
                0x0000000000029050       0x10 /tmp/UiApp.dll.XMj2sU.ltrans0.ltrans.o
                0x0000000000029050                m_MaxPosition
 .bss.m_Position
                0x0000000000029060       0x10 /tmp/UiApp.dll.XMj2sU.ltrans0.ltrans.o
                0x0000000000029060                m_Position
 .bss.gDS       0x0000000000029070        0x8 /tmp/UiApp.dll.XMj2sU.ltrans1.ltrans.o
                0x0000000000029070                gDS
 .bss.gImageHandle
                0x0000000000029078        0x8 /tmp/UiApp.dll.XMj2sU.ltrans1.ltrans.o
                0x0000000000029078                gImageHandle
 .bss.mLibEndOpCodeHandle
                0x0000000000029080        0x8 /tmp/UiApp.dll.XMj2sU.ltrans1.ltrans.o
 .bss.mLibStartOpCodeHandle
                0x0000000000029088        0x8 /tmp/UiApp.dll.XMj2sU.ltrans1.ltrans.o
 .bss.mNewFileName
                0x0000000000029090       0x28 /tmp/UiApp.dll.XMj2sU.ltrans1.ltrans.o
 .bss.mNewFolderName
                0x00000000000290b8       0x28 /tmp/UiApp.dll.XMj2sU.ltrans1.ltrans.o
 .bss.mRamDisk  0x00000000000290e0        0x8 /tmp/UiApp.dll.XMj2sU.ltrans1.ltrans.o
 .bss.gCurrentLanguageIndex
                0x00000000000290e8        0x1 /tmp/UiApp.dll.XMj2sU.ltrans2.ltrans.o
 *fill*         0x00000000000290e9        0x7 
 .bss.gFormBrowser2
                0x00000000000290f0        0x8 /tmp/UiApp.dll.XMj2sU.ltrans2.ltrans.o
 .bss.gHiiDriverList
                0x00000000000290f8        0x8 /tmp/UiApp.dll.XMj2sU.ltrans2.ltrans.o
 .bss.gHiiFont  0x0000000000029100        0x8 /tmp/UiApp.dll.XMj2sU.ltrans2.ltrans.o
 .bss.gHiiImage
                0x0000000000029108        0x8 /tmp/UiApp.dll.XMj2sU.ltrans2.ltrans.o
 .bss.gHiiVendorDevicePath
                0x0000000000029110        0x8 /tmp/UiApp.dll.XMj2sU.ltrans2.ltrans.o
 .bss.gLanguageString
                0x0000000000029118        0x8 /tmp/UiApp.dll.XMj2sU.ltrans2.ltrans.o
 .bss.gLanguageToken
                0x0000000000029120        0x8 /tmp/UiApp.dll.XMj2sU.ltrans2.ltrans.o
 .bss.gStringPackHandle
                0x0000000000029128        0x8 /tmp/UiApp.dll.XMj2sU.ltrans2.ltrans.o
 .bss.mAllMenuInit
                0x0000000000029130        0x1 /tmp/UiApp.dll.XMj2sU.ltrans2.ltrans.o
 .bss.mBmModeInitialized
                0x0000000000029131        0x1 /tmp/UiApp.dll.XMj2sU.ltrans2.ltrans.o
 .bss.mBmmModeInitialized
                0x0000000000029132        0x1 /tmp/UiApp.dll.XMj2sU.ltrans2.ltrans.o
 *fill*         0x0000000000029133        0x1 
 .bss.mBootHorizontalResolution
                0x0000000000029134        0x4 /tmp/UiApp.dll.XMj2sU.ltrans2.ltrans.o
 .bss.mBootTextModeColumn
                0x0000000000029138        0x4 /tmp/UiApp.dll.XMj2sU.ltrans2.ltrans.o
 .bss.mBootTextModeRow
                0x000000000002913c        0x4 /tmp/UiApp.dll.XMj2sU.ltrans2.ltrans.o
 .bss.mBootVerticalResolution
                0x0000000000029140        0x4 /tmp/UiApp.dll.XMj2sU.ltrans2.ltrans.o
 *fill*         0x0000000000029144        0x4 
 .bss.mHobList  0x0000000000029148        0x8 /tmp/UiApp.dll.XMj2sU.ltrans2.ltrans.o
 .bss.mLanguageString
                0x0000000000029150        0x8 /tmp/UiApp.dll.XMj2sU.ltrans2.ltrans.o
 .bss.mModeInitialized
                0x0000000000029158        0x1 /tmp/UiApp.dll.XMj2sU.ltrans2.ltrans.o
 *fill*         0x0000000000029159        0x7 
 .bss.mPcd      0x0000000000029160        0x8 /tmp/UiApp.dll.XMj2sU.ltrans2.ltrans.o
 .bss.mResetRequired
                0x0000000000029168        0x1 /tmp/UiApp.dll.XMj2sU.ltrans2.ltrans.o
 *fill*         0x0000000000029169        0x3 
 .bss.mSetupHorizontalResolution
                0x000000000002916c        0x4 /tmp/UiApp.dll.XMj2sU.ltrans2.ltrans.o
 .bss.mSetupTextModeColumn
                0x0000000000029170        0x4 /tmp/UiApp.dll.XMj2sU.ltrans2.ltrans.o
 .bss.mSetupTextModeRow
                0x0000000000029174        0x4 /tmp/UiApp.dll.XMj2sU.ltrans2.ltrans.o
 .bss.mSetupVerticalResolution
                0x0000000000029178        0x4 /tmp/UiApp.dll.XMj2sU.ltrans2.ltrans.o

.dynbss         0x000000000002917c        0x0
 .dynbss        0x000000000002917c        0x0 /home/j0sh1x/Lg_G7_ThinQ_Edk2/edk2/ArmPkg/Library/GccLto/liblto-aarch64.a

.eh_frame
 *(.eh_frame)

.rela           0x0000000000029180      0xe40
 *(.rela .rela.*)
 .rela.got      0x0000000000029180        0x0 /home/j0sh1x/Lg_G7_ThinQ_Edk2/edk2/ArmPkg/Library/GccLto/liblto-aarch64.a
 .rela.plt      0x0000000000029180        0x0 /home/j0sh1x/Lg_G7_ThinQ_Edk2/edk2/ArmPkg/Library/GccLto/liblto-aarch64.a
 .rela.bss      0x0000000000029180        0x0 /home/j0sh1x/Lg_G7_ThinQ_Edk2/edk2/ArmPkg/Library/GccLto/liblto-aarch64.a
 .rela.data.rel.ro
                0x0000000000029180        0x0 /home/j0sh1x/Lg_G7_ThinQ_Edk2/edk2/ArmPkg/Library/GccLto/liblto-aarch64.a
 .rela.ifunc    0x0000000000029180        0x0 /home/j0sh1x/Lg_G7_ThinQ_Edk2/edk2/ArmPkg/Library/GccLto/liblto-aarch64.a
 .rela.data.gBootMaintenancePrivate
                0x0000000000029180       0x48 /home/j0sh1x/Lg_G7_ThinQ_Edk2/edk2/ArmPkg/Library/GccLto/liblto-aarch64.a
 .rela.data.gBootManagerPrivate
                0x00000000000291c8       0x48 /home/j0sh1x/Lg_G7_ThinQ_Edk2/edk2/ArmPkg/Library/GccLto/liblto-aarch64.a
 .rela.data.gDeviceManagerPrivate
                0x0000000000029210       0x48 /home/j0sh1x/Lg_G7_ThinQ_Edk2/edk2/ArmPkg/Library/GccLto/liblto-aarch64.a
 .rela.data.gFileExplorerPrivate
                0x0000000000029258       0x60 /home/j0sh1x/Lg_G7_ThinQ_Edk2/edk2/ArmPkg/Library/GccLto/liblto-aarch64.a
 .rela.rodata.mBmLoadOptionName
                0x00000000000292b8       0x60 /home/j0sh1x/Lg_G7_ThinQ_Edk2/edk2/ArmPkg/Library/GccLto/liblto-aarch64.a
 .rela.rodata.mBmLoadOptionOrderName
                0x0000000000029318       0x48 /home/j0sh1x/Lg_G7_ThinQ_Edk2/edk2/ArmPkg/Library/GccLto/liblto-aarch64.a
 .rela.rodata.mDeviceTypeStr
                0x0000000000029360       0xc0 /home/j0sh1x/Lg_G7_ThinQ_Edk2/edk2/ArmPkg/Library/GccLto/liblto-aarch64.a
 .rela.rodata.mStatusString
                0x0000000000029420      0x3a8 /home/j0sh1x/Lg_G7_ThinQ_Edk2/edk2/ArmPkg/Library/GccLto/liblto-aarch64.a
 .rela.rodata.mUefiDevicePathLibToTextTable
                0x00000000000297c8      0x498 /home/j0sh1x/Lg_G7_ThinQ_Edk2/edk2/ArmPkg/Library/GccLto/liblto-aarch64.a
 .rela.data.mBmHotkeyList
                0x0000000000029c60       0x30 /home/j0sh1x/Lg_G7_ThinQ_Edk2/edk2/ArmPkg/Library/GccLto/liblto-aarch64.a
 .rela.data.mPlatformBootDescriptionHandlers
                0x0000000000029c90       0x30 /home/j0sh1x/Lg_G7_ThinQ_Edk2/edk2/ArmPkg/Library/GccLto/liblto-aarch64.a
 .rela.rodata.mBmBootDescriptionHandlers
                0x0000000000029cc0       0x90 /home/j0sh1x/Lg_G7_ThinQ_Edk2/edk2/ArmPkg/Library/GccLto/liblto-aarch64.a
 .rela.rodata.mBmHealthStatusText
                0x0000000000029d50       0x90 /home/j0sh1x/Lg_G7_ThinQ_Edk2/edk2/ArmPkg/Library/GccLto/liblto-aarch64.a
 .rela.rodata.mConVarName
                0x0000000000029de0       0x90 /home/j0sh1x/Lg_G7_ThinQ_Edk2/edk2/ArmPkg/Library/GccLto/liblto-aarch64.a
 .rela.data.gFrontPagePrivate
                0x0000000000029e70       0x48 /home/j0sh1x/Lg_G7_ThinQ_Edk2/edk2/ArmPkg/Library/GccLto/liblto-aarch64.a
 .rela.rodata.CSWTCH.58
                0x0000000000029eb8       0x90 /home/j0sh1x/Lg_G7_ThinQ_Edk2/edk2/ArmPkg/Library/GccLto/liblto-aarch64.a
 .rela.rodata.mUefiDevicePathLibToTextTableGeneric
                0x0000000000029f48       0x78 /home/j0sh1x/Lg_G7_ThinQ_Edk2/edk2/ArmPkg/Library/GccLto/liblto-aarch64.a

.hii
 *(.hii)

.build-id       0x0000000000029fc0       0x24
 *(.note.gnu.build-id)
 .note.gnu.build-id
                0x0000000000029fc0       0x24 /home/j0sh1x/Lg_G7_ThinQ_Edk2/edk2/ArmPkg/Library/GccLto/liblto-aarch64.a

/DISCARD/
 *(.note.GNU-stack)
 *(.gnu_debuglink)
 *(.interp)
 *(.dynsym)
 *(.dynstr)
 *(.dynamic)
 *(.hash .gnu.hash)
 *(.comment)
 *(COMMON)
                0x0000000000000228                PECOFF_HEADER_SIZE = 0x228
OUTPUT(/home/j0sh1x/Lg_G7_ThinQ_Edk2/edk2_LG_G7_THINQ/workspace/Build/LgG7ThinQPkg/DEBUG_GCC5/AARCH64/MdeModulePkg/Application/UiApp/UiApp/DEBUG/UiApp.dll elf64-littleaarch64)

.debug_info     0x0000000000000000    0xb61bd
 .debug_info    0x0000000000000000     0xe43c /tmp/UiApp.dll.XMj2sU.ltrans0.ltrans.o
 .debug_info    0x000000000000e43c     0xc004 /tmp/UiApp.dll.XMj2sU.ltrans1.ltrans.o
 .debug_info    0x000000000001a440     0xc5f3 /tmp/UiApp.dll.XMj2sU.ltrans2.ltrans.o
 .debug_info    0x0000000000026a33      0x289 /tmp/ccXLiP8S.debug.temp.o
                0x0000000000026a33                memcpy.c.1e1e787a
 .debug_info    0x0000000000026cbc      0x23a /tmp/ccHI6sZU.debug.temp.o
                0x0000000000026cbc                memset.c.cbb55926
 .debug_info    0x0000000000026ef6     0x19da /tmp/ccbZWGAS.debug.temp.o
                0x0000000000026ef6                ApplicationEntryPoint.c.004435f2
 .debug_info    0x00000000000288d0      0x239 /tmp/ccjj85FU.debug.temp.o
                0x00000000000288d0                BaseStackCheckGcc.c.7c8230a6
 .debug_info    0x0000000000028b09     0x240c /tmp/ccvZjDvR.debug.temp.o
                0x0000000000028b09                AutoGen.c.61f5dc87
 .debug_info    0x000000000002af15     0x447e /tmp/ccdkOiRQ.debug.temp.o
                0x000000000002af15                FrontPage.c.59227838
 .debug_info    0x000000000002f393     0x311d /tmp/ccgCqmwU.debug.temp.o
                0x000000000002f393                String.c.eb5c2cdf
 .debug_info    0x00000000000324b0     0x32f3 /tmp/ccPsHtGU.debug.temp.o
                0x00000000000324b0                FrontPageCustomizedUi.c.263e0602
 .debug_info    0x00000000000357a3     0x34fe /tmp/ccS6TKZU.debug.temp.o
                0x00000000000357a3                FrontPageCustomizedUiSupport.c.4681150c
 .debug_info    0x0000000000038ca1      0x765 /tmp/cc66O6fR.debug.temp.o
                0x0000000000038ca1                FrontPageVfr.c.672f436c
 .debug_info    0x0000000000039406     0x2f48 /tmp/ccXlCKRU.debug.temp.o
                0x0000000000039406                DxePcdLib.c.c6ef4b0a
 .debug_info    0x000000000003c34e      0x2cf /tmp/ccaPmWDQ.debug.temp.o
                0x000000000003c34e                MemLibGuid.c.01726354
 .debug_info    0x000000000003c61d      0x243 /tmp/cccZLibS.debug.temp.o
                0x000000000003c61d                CopyMemWrapper.c.f2c49a7f
 .debug_info    0x000000000003c860      0x27c /tmp/ccWZsIWU.debug.temp.o
                0x000000000003c860                RShiftU64.c.a33b1828
 .debug_info    0x000000000003cadc      0x271 /tmp/ccm2PzcV.debug.temp.o
                0x000000000003cadc                CpuDeadLoop.c.b22f2262
 .debug_info    0x000000000003cd4d      0xe6f /tmp/ccceNeTU.debug.temp.o
                0x000000000003cd4d                SafeString.c.e0d6f670
 .debug_info    0x000000000003dbbc      0xafd /tmp/ccW9ed8S.debug.temp.o
                0x000000000003dbbc                String.c.8fee0045
 .debug_info    0x000000000003e6b9      0x4dd /tmp/ccm31qhR.debug.temp.o
                0x000000000003e6b9                Math64.c.083e34f2
 .debug_info    0x000000000003eb96      0x27c /tmp/ccJJN2YR.debug.temp.o
                0x000000000003eb96                MultU64x32.c.71505004
 .debug_info    0x000000000003ee12      0x27c /tmp/ccJmC5ST.debug.temp.o
                0x000000000003ee12                LShiftU64.c.982cdeda
 .debug_info    0x000000000003f08e      0x7cd /tmp/ccOuQ4KT.debug.temp.o
                0x000000000003f08e                PrintLib.c.8c5ec511
 .debug_info    0x000000000003f85b      0x824 /tmp/ccM2xJwU.debug.temp.o
                0x000000000003f85b                PrintLibInternal.c.4595abda
 .debug_info    0x000000000004007f      0x497 /tmp/cczy6ObT.debug.temp.o
                0x000000000004007f                DebugLib.c.6a384b5e
 .debug_info    0x0000000000040516     0x1e91 /tmp/ccFcJpRR.debug.temp.o
                0x0000000000040516                MemoryAllocationLib.c.9b2360f8
 .debug_info    0x00000000000423a7     0x1992 /tmp/ccXG1aHR.debug.temp.o
                0x00000000000423a7                UefiBootServicesTableLib.c.b2c21aa1
 .debug_info    0x0000000000043d39     0x1963 /tmp/ccsmktNQ.debug.temp.o
                0x0000000000043d39                UefiRuntimeServicesTableLib.c.d5c0fac4
 .debug_info    0x000000000004569c     0x1e7f /tmp/ccjGG10Q.debug.temp.o
                0x000000000004569c                DevicePathUtilities.c.3aa82666
 .debug_info    0x000000000004751b     0x1baf /tmp/ccEM87ZS.debug.temp.o
                0x000000000004751b                UefiDevicePathLib.c.b1b87bec
 .debug_info    0x00000000000490ca     0x3e07 /tmp/ccPo6V8U.debug.temp.o
                0x00000000000490ca                DevicePathToText.c.6837aabe
 .debug_info    0x000000000004ced1     0x1d8b /tmp/ccBpDpES.debug.temp.o
                0x000000000004ced1                Console.c.693eaa06
 .debug_info    0x000000000004ec5c     0x2896 /tmp/ccrdz0RS.debug.temp.o
                0x000000000004ec5c                UefiLib.c.a867074c
 .debug_info    0x00000000000514f2     0x23af /tmp/ccekzuFS.debug.temp.o
                0x00000000000514f2                HobLib.c.8a381ba7
 .debug_info    0x00000000000538a1     0x2a0a /tmp/ccYslnBT.debug.temp.o
                0x00000000000538a1                UefiHiiServicesLib.c.3d4058a3
 .debug_info    0x00000000000562ab     0x1f5f /tmp/cc0LOACS.debug.temp.o
                0x00000000000562ab                DxeServicesTableLib.c.2ec5cdf5
 .debug_info    0x000000000005820a     0x514a /tmp/ccEskqoR.debug.temp.o
                0x000000000005820a                HiiLib.c.31889650
 .debug_info    0x000000000005d354     0x2bb6 /tmp/ccHeV3DT.debug.temp.o
                0x000000000005d354                HiiString.c.e19504dd
 .debug_info    0x000000000005ff0a     0x2ab3 /tmp/cc2mNBZT.debug.temp.o
                0x000000000005ff0a                HiiLanguage.c.5e207fb9
 .debug_info    0x00000000000629bd     0x1f06 /tmp/ccS0JqQT.debug.temp.o
                0x00000000000629bd                ReportStatusCodeLib.c.0268e86d
 .debug_info    0x00000000000648c3     0x27c5 /tmp/cc8peQEQ.debug.temp.o
                0x00000000000648c3                BmConnect.c.31945372
 .debug_info    0x0000000000067088     0x2bfb /tmp/ccyMiI0S.debug.temp.o
                0x0000000000067088                BmConsole.c.19cb39e5
 .debug_info    0x0000000000069c83     0x3dda /tmp/cc2WlFER.debug.temp.o
                0x0000000000069c83                BmBoot.c.b2425363
 .debug_info    0x000000000006da5d     0x5415 /tmp/ccLojDwR.debug.temp.o
                0x000000000006da5d                BmBootDescription.c.d0799859
 .debug_info    0x0000000000072e72     0x341c /tmp/ccbgtkuR.debug.temp.o
                0x0000000000072e72                BmLoadOption.c.cbab83c8
 .debug_info    0x000000000007628e     0x2f33 /tmp/ccw2XMyR.debug.temp.o
                0x000000000007628e                BmHotkey.c.7fc4c18b
 .debug_info    0x00000000000791c1     0x28b7 /tmp/ccScQ5TT.debug.temp.o
                0x00000000000791c1                BmDriverHealth.c.05893a3d
 .debug_info    0x000000000007ba78     0x25d4 /tmp/cck1YTvR.debug.temp.o
                0x000000000007ba78                BmMisc.c.8c5c71f8
 .debug_info    0x000000000007e04c     0x3006 /tmp/ccpMjIOQ.debug.temp.o
                0x000000000007e04c                FileExplorer.c.3db76ef3
 .debug_info    0x0000000000081052      0x334 /tmp/ccv4Zh4S.debug.temp.o
                0x0000000000081052                AutoGen.c.31d3630d
 .debug_info    0x0000000000081386      0x348 /tmp/ccJEni1T.debug.temp.o
                0x0000000000081386                FileExplorerVfr.c.4090012d
 .debug_info    0x00000000000816ce     0x34dd /tmp/ccCsTHgT.debug.temp.o
                0x00000000000816ce                DeviceManager.c.ad223c64
 .debug_info    0x0000000000084bab      0x31c /tmp/ccV91cCT.debug.temp.o
                0x0000000000084bab                AutoGen.c.19585ee5
 .debug_info    0x0000000000084ec7      0x331 /tmp/cc2HUEyU.debug.temp.o
                0x0000000000084ec7                DeviceManagerVfr.c.5f6d6897
 .debug_info    0x00000000000851f8     0x2bab /tmp/cce1JztT.debug.temp.o
                0x00000000000851f8                BootManager.c.8d0f2bc9
 .debug_info    0x0000000000087da3      0x405 /tmp/ccrFTh4U.debug.temp.o
                0x0000000000087da3                AutoGen.c.7b12ea1b
 .debug_info    0x00000000000881a8      0x419 /tmp/ccInoOOQ.debug.temp.o
                0x00000000000881a8                BootManagerVfr.c.c42761b5
 .debug_info    0x00000000000885c1     0x45eb /tmp/cc2chVAS.debug.temp.o
                0x00000000000885c1                BootMaintenance.c.50cdc2ed
 .debug_info    0x000000000008cbac     0x4725 /tmp/ccO4li8S.debug.temp.o
                0x000000000008cbac                BootOption.c.a9db91dd
 .debug_info    0x00000000000912d1     0x4819 /tmp/ccSZCavR.debug.temp.o
                0x00000000000912d1                ConsoleOption.c.c6f96669
 .debug_info    0x0000000000095aea     0x3e22 /tmp/ccewbZ9R.debug.temp.o
                0x0000000000095aea                Data.c.8a754637
 .debug_info    0x000000000009990c     0x432a /tmp/ccetwARS.debug.temp.o
                0x000000000009990c                Variable.c.55237973
 .debug_info    0x000000000009dc36     0x426d /tmp/ccAREOzT.debug.temp.o
                0x000000000009dc36                UpdatePage.c.807a4366
 .debug_info    0x00000000000a1ea3     0x3da7 /tmp/ccpEIRxU.debug.temp.o
                0x00000000000a1ea3                BmLib.c.e775ba7a
 .debug_info    0x00000000000a5c4a      0x6c8 /tmp/ccTCICPS.debug.temp.o
                0x00000000000a5c4a                BootMaintenanceManagerCustomizedUi.c.6ed0e573
 .debug_info    0x00000000000a6312     0x4148 /tmp/ccqutFuR.debug.temp.o
                0x00000000000a6312                BootMaintenanceManagerCustomizedUiSupport.c.80937b99
 .debug_info    0x00000000000aa45a      0x44d /tmp/ccIYQUNR.debug.temp.o
                0x00000000000aa45a                AutoGen.c.ffbaf46e
 .debug_info    0x00000000000aa8a7      0x462 /tmp/ccTw1qWQ.debug.temp.o
                0x00000000000aa8a7                BootMaintenanceManager.c.64d81ec4
 .debug_info    0x00000000000aad09      0x22c /tmp/ccAwWaIQ.debug.temp.o
                0x00000000000aad09                ZeroMemWrapper.c.f64356c5
 .debug_info    0x00000000000aaf35      0x259 /tmp/ccjRYKcR.debug.temp.o
                0x00000000000aaf35                CompareMemWrapper.c.f12ae324
 .debug_info    0x00000000000ab18e      0x238 /tmp/ccPe9rXU.debug.temp.o
                0x00000000000ab18e                SetMem16Wrapper.c.f74e6803
 .debug_info    0x00000000000ab3c6      0x26d /tmp/cca5TRcU.debug.temp.o
                0x00000000000ab3c6                SetMemWrapper.c.6fb99c85
 .debug_info    0x00000000000ab633      0x235 /tmp/ccKnqrhT.debug.temp.o
                0x00000000000ab633                IsZeroBufferWrapper.c.fbf83564
 .debug_info    0x00000000000ab868      0x33c /tmp/ccb82HeS.debug.temp.o
                0x00000000000ab868                ScanMemGeneric.c.4377e955
 .debug_info    0x00000000000abba4      0x286 /tmp/ccMkDz1R.debug.temp.o
                0x00000000000abba4                DivU64x32Remainder.c.fd6219e5
 .debug_info    0x00000000000abe2a      0x4ca /tmp/cc9Q5zIU.debug.temp.o
                0x00000000000abe2a                LinkedList.c.fe9ca1b6
 .debug_info    0x00000000000ac2f4      0x3de /tmp/ccPjCGAU.debug.temp.o
                0x00000000000ac2f4                Unaligned.c.007f7ff3
 .debug_info    0x00000000000ac6d2      0x23f /tmp/cc9cQLlR.debug.temp.o
                0x00000000000ac6d2                BaseDebugPrintErrorLevelLib.c.4c0da260
 .debug_info    0x00000000000ac911      0x89c /tmp/ccpY3HmT.debug.temp.o
                0x00000000000ac911                FrameBufferSerialPortLib.c.7984acb7
 .debug_info    0x00000000000ad1ad     0x2806 /tmp/ccPgV1IS.debug.temp.o
                0x00000000000ad1ad                UefiLibPrint.c.091185ac
 .debug_info    0x00000000000af9b3     0x1cb7 /tmp/ccAZHEoS.debug.temp.o
                0x00000000000af9b3                UefiNotTiano.c.ef2dda6b
 .debug_info    0x00000000000b166a     0x2807 /tmp/ccWXLb3R.debug.temp.o
                0x00000000000b166a                DxeServicesLib.c.f6ecc804
 .debug_info    0x00000000000b3e71     0x1d3d /tmp/ccvl1Y7U.debug.temp.o
                0x00000000000b3e71                DxePerformanceLib.c.9fa03f87
 .debug_info    0x00000000000b5bae      0x345 /tmp/ccUGi1pS.debug.temp.o
                0x00000000000b5bae                ArmCacheMaintenanceLib.c.52724bd9
 .debug_info    0x00000000000b5ef3      0x2ca /tmp/ccaWLOnS.debug.temp.o
                0x00000000000b5ef3                ArmLib.c.3f59dbc1

.debug_abbrev   0x0000000000000000     0x9b07
 .debug_abbrev  0x0000000000000000      0x2f9 /tmp/UiApp.dll.XMj2sU.ltrans0.ltrans.o
 .debug_abbrev  0x00000000000002f9      0x251 /tmp/UiApp.dll.XMj2sU.ltrans1.ltrans.o
 .debug_abbrev  0x000000000000054a      0x29c /tmp/UiApp.dll.XMj2sU.ltrans2.ltrans.o
 .debug_abbrev  0x00000000000007e6       0xfd /tmp/ccXLiP8S.debug.temp.o
 .debug_abbrev  0x00000000000008e3       0xcf /tmp/ccHI6sZU.debug.temp.o
 .debug_abbrev  0x00000000000009b2      0x1fc /tmp/ccbZWGAS.debug.temp.o
 .debug_abbrev  0x0000000000000bae       0xd6 /tmp/ccjj85FU.debug.temp.o
 .debug_abbrev  0x0000000000000c84      0x23d /tmp/ccvZjDvR.debug.temp.o
 .debug_abbrev  0x0000000000000ec1      0x313 /tmp/ccdkOiRQ.debug.temp.o
 .debug_abbrev  0x00000000000011d4      0x252 /tmp/ccgCqmwU.debug.temp.o
 .debug_abbrev  0x0000000000001426      0x263 /tmp/ccPsHtGU.debug.temp.o
 .debug_abbrev  0x0000000000001689      0x2cf /tmp/ccS6TKZU.debug.temp.o
 .debug_abbrev  0x0000000000001958       0xd2 /tmp/cc66O6fR.debug.temp.o
 .debug_abbrev  0x0000000000001a2a      0x25c /tmp/ccXlCKRU.debug.temp.o
 .debug_abbrev  0x0000000000001c86       0xdd /tmp/ccaPmWDQ.debug.temp.o
 .debug_abbrev  0x0000000000001d63       0xc7 /tmp/cccZLibS.debug.temp.o
 .debug_abbrev  0x0000000000001e2a       0xc0 /tmp/ccWZsIWU.debug.temp.o
 .debug_abbrev  0x0000000000001eea       0xc5 /tmp/ccm2PzcV.debug.temp.o
 .debug_abbrev  0x0000000000001faf      0x12d /tmp/ccceNeTU.debug.temp.o
 .debug_abbrev  0x00000000000020dc      0x135 /tmp/ccW9ed8S.debug.temp.o
 .debug_abbrev  0x0000000000002211      0x108 /tmp/ccm31qhR.debug.temp.o
 .debug_abbrev  0x0000000000002319       0xcf /tmp/ccJJN2YR.debug.temp.o
 .debug_abbrev  0x00000000000023e8       0xc0 /tmp/ccJmC5ST.debug.temp.o
 .debug_abbrev  0x00000000000024a8      0x150 /tmp/ccOuQ4KT.debug.temp.o
 .debug_abbrev  0x00000000000025f8      0x181 /tmp/ccM2xJwU.debug.temp.o
 .debug_abbrev  0x0000000000002779      0x165 /tmp/cczy6ObT.debug.temp.o
 .debug_abbrev  0x00000000000028de      0x242 /tmp/ccFcJpRR.debug.temp.o
 .debug_abbrev  0x0000000000002b20      0x1dd /tmp/ccXG1aHR.debug.temp.o
 .debug_abbrev  0x0000000000002cfd      0x1c3 /tmp/ccsmktNQ.debug.temp.o
 .debug_abbrev  0x0000000000002ec0      0x240 /tmp/ccjGG10Q.debug.temp.o
 .debug_abbrev  0x0000000000003100      0x1fe /tmp/ccEM87ZS.debug.temp.o
 .debug_abbrev  0x00000000000032fe      0x2ca /tmp/ccPo6V8U.debug.temp.o
 .debug_abbrev  0x00000000000035c8      0x276 /tmp/ccBpDpES.debug.temp.o
 .debug_abbrev  0x000000000000383e      0x267 /tmp/ccrdz0RS.debug.temp.o
 .debug_abbrev  0x0000000000003aa5      0x25a /tmp/ccekzuFS.debug.temp.o
 .debug_abbrev  0x0000000000003cff      0x216 /tmp/ccYslnBT.debug.temp.o
 .debug_abbrev  0x0000000000003f15      0x1ea /tmp/cc0LOACS.debug.temp.o
 .debug_abbrev  0x00000000000040ff      0x315 /tmp/ccEskqoR.debug.temp.o
 .debug_abbrev  0x0000000000004414      0x22b /tmp/ccHeV3DT.debug.temp.o
 .debug_abbrev  0x000000000000463f      0x209 /tmp/cc2mNBZT.debug.temp.o
 .debug_abbrev  0x0000000000004848      0x27a /tmp/ccS0JqQT.debug.temp.o
 .debug_abbrev  0x0000000000004ac2      0x214 /tmp/cc8peQEQ.debug.temp.o
 .debug_abbrev  0x0000000000004cd6      0x258 /tmp/ccyMiI0S.debug.temp.o
 .debug_abbrev  0x0000000000004f2e      0x276 /tmp/cc2WlFER.debug.temp.o
 .debug_abbrev  0x00000000000051a4      0x382 /tmp/ccLojDwR.debug.temp.o
 .debug_abbrev  0x0000000000005526      0x2b7 /tmp/ccbgtkuR.debug.temp.o
 .debug_abbrev  0x00000000000057dd      0x2e5 /tmp/ccw2XMyR.debug.temp.o
 .debug_abbrev  0x0000000000005ac2      0x26c /tmp/ccScQ5TT.debug.temp.o
 .debug_abbrev  0x0000000000005d2e      0x25a /tmp/cck1YTvR.debug.temp.o
 .debug_abbrev  0x0000000000005f88      0x2c0 /tmp/ccpMjIOQ.debug.temp.o
 .debug_abbrev  0x0000000000006248       0xb7 /tmp/ccv4Zh4S.debug.temp.o
 .debug_abbrev  0x00000000000062ff       0xbb /tmp/ccJEni1T.debug.temp.o
 .debug_abbrev  0x00000000000063ba      0x2d5 /tmp/ccCsTHgT.debug.temp.o
 .debug_abbrev  0x000000000000668f       0xb7 /tmp/ccV91cCT.debug.temp.o
 .debug_abbrev  0x0000000000006746       0xc4 /tmp/cc2HUEyU.debug.temp.o
 .debug_abbrev  0x000000000000680a      0x295 /tmp/cce1JztT.debug.temp.o
 .debug_abbrev  0x0000000000006a9f       0xbe /tmp/ccrFTh4U.debug.temp.o
 .debug_abbrev  0x0000000000006b5d       0xc2 /tmp/ccInoOOQ.debug.temp.o
 .debug_abbrev  0x0000000000006c1f      0x305 /tmp/cc2chVAS.debug.temp.o
 .debug_abbrev  0x0000000000006f24      0x310 /tmp/ccO4li8S.debug.temp.o
 .debug_abbrev  0x0000000000007234      0x337 /tmp/ccSZCavR.debug.temp.o
 .debug_abbrev  0x000000000000756b      0x250 /tmp/ccewbZ9R.debug.temp.o
 .debug_abbrev  0x00000000000077bb      0x2e2 /tmp/ccetwARS.debug.temp.o
 .debug_abbrev  0x0000000000007a9d      0x2c5 /tmp/ccAREOzT.debug.temp.o
 .debug_abbrev  0x0000000000007d62      0x289 /tmp/ccpEIRxU.debug.temp.o
 .debug_abbrev  0x0000000000007feb      0x12b /tmp/ccTCICPS.debug.temp.o
 .debug_abbrev  0x0000000000008116      0x2c7 /tmp/ccqutFuR.debug.temp.o
 .debug_abbrev  0x00000000000083dd       0xbe /tmp/ccIYQUNR.debug.temp.o
 .debug_abbrev  0x000000000000849b       0xcb /tmp/ccTw1qWQ.debug.temp.o
 .debug_abbrev  0x0000000000008566       0xc0 /tmp/ccAwWaIQ.debug.temp.o
 .debug_abbrev  0x0000000000008626       0xc0 /tmp/ccjRYKcR.debug.temp.o
 .debug_abbrev  0x00000000000086e6       0xc0 /tmp/ccPe9rXU.debug.temp.o
 .debug_abbrev  0x00000000000087a6       0xd5 /tmp/cca5TRcU.debug.temp.o
 .debug_abbrev  0x000000000000887b       0xc0 /tmp/ccKnqrhT.debug.temp.o
 .debug_abbrev  0x000000000000893b       0xd6 /tmp/ccb82HeS.debug.temp.o
 .debug_abbrev  0x0000000000008a11       0xc2 /tmp/ccMkDz1R.debug.temp.o
 .debug_abbrev  0x0000000000008ad3      0x137 /tmp/cc9Q5zIU.debug.temp.o
 .debug_abbrev  0x0000000000008c0a       0xd8 /tmp/ccPjCGAU.debug.temp.o
 .debug_abbrev  0x0000000000008ce2       0xd5 /tmp/cc9cQLlR.debug.temp.o
 .debug_abbrev  0x0000000000008db7      0x224 /tmp/ccpY3HmT.debug.temp.o
 .debug_abbrev  0x0000000000008fdb      0x283 /tmp/ccPgV1IS.debug.temp.o
 .debug_abbrev  0x000000000000925e      0x233 /tmp/ccAZHEoS.debug.temp.o
 .debug_abbrev  0x0000000000009491      0x225 /tmp/ccWXLb3R.debug.temp.o
 .debug_abbrev  0x00000000000096b6      0x240 /tmp/ccvl1Y7U.debug.temp.o
 .debug_abbrev  0x00000000000098f6      0x101 /tmp/ccUGi1pS.debug.temp.o
 .debug_abbrev  0x00000000000099f7      0x110 /tmp/ccaWLOnS.debug.temp.o

.debug_loc      0x0000000000000000    0x336cd
 .debug_loc     0x0000000000000000    0x1365b /tmp/UiApp.dll.XMj2sU.ltrans0.ltrans.o
 .debug_loc     0x000000000001365b     0xeccd /tmp/UiApp.dll.XMj2sU.ltrans1.ltrans.o
 .debug_loc     0x0000000000022328    0x113a5 /tmp/UiApp.dll.XMj2sU.ltrans2.ltrans.o

.debug_aranges  0x0000000000000000     0x1370
 .debug_aranges
                0x0000000000000000      0x640 /tmp/UiApp.dll.XMj2sU.ltrans0.ltrans.o
 .debug_aranges
                0x0000000000000640      0x450 /tmp/UiApp.dll.XMj2sU.ltrans1.ltrans.o
 .debug_aranges
                0x0000000000000a90      0x8e0 /tmp/UiApp.dll.XMj2sU.ltrans2.ltrans.o

.debug_ranges   0x0000000000000000     0x6170
 .debug_ranges  0x0000000000000000     0x24e0 /tmp/UiApp.dll.XMj2sU.ltrans0.ltrans.o
 .debug_ranges  0x00000000000024e0     0x1f90 /tmp/UiApp.dll.XMj2sU.ltrans1.ltrans.o
 .debug_ranges  0x0000000000004470     0x1d00 /tmp/UiApp.dll.XMj2sU.ltrans2.ltrans.o

.debug_line     0x0000000000000000    0x28b6c
 .debug_line    0x0000000000000000     0x7f4a /tmp/UiApp.dll.XMj2sU.ltrans0.ltrans.o
 .debug_line    0x0000000000007f4a     0x6e35 /tmp/UiApp.dll.XMj2sU.ltrans1.ltrans.o
 .debug_line    0x000000000000ed7f     0x6ad1 /tmp/UiApp.dll.XMj2sU.ltrans2.ltrans.o
 .debug_line    0x0000000000015850      0x1a8 /tmp/ccXLiP8S.debug.temp.o
 .debug_line    0x00000000000159f8      0x1a8 /tmp/ccHI6sZU.debug.temp.o
 .debug_line    0x0000000000015ba0      0x39a /tmp/ccbZWGAS.debug.temp.o
 .debug_line    0x0000000000015f3a      0x1a7 /tmp/ccjj85FU.debug.temp.o
 .debug_line    0x00000000000160e1      0x334 /tmp/ccvZjDvR.debug.temp.o
 .debug_line    0x0000000000016415      0x5e7 /tmp/ccdkOiRQ.debug.temp.o
 .debug_line    0x00000000000169fc      0x51d /tmp/ccgCqmwU.debug.temp.o
 .debug_line    0x0000000000016f19      0x541 /tmp/ccPsHtGU.debug.temp.o
 .debug_line    0x000000000001745a      0x523 /tmp/ccS6TKZU.debug.temp.o
 .debug_line    0x000000000001797d      0x2a0 /tmp/cc66O6fR.debug.temp.o
 .debug_line    0x0000000000017c1d      0x3d4 /tmp/ccXlCKRU.debug.temp.o
 .debug_line    0x0000000000017ff1      0x1aa /tmp/ccaPmWDQ.debug.temp.o
 .debug_line    0x000000000001819b      0x1aa /tmp/cccZLibS.debug.temp.o
 .debug_line    0x0000000000018345      0x181 /tmp/ccWZsIWU.debug.temp.o
 .debug_line    0x00000000000184c6      0x183 /tmp/ccm2PzcV.debug.temp.o
 .debug_line    0x0000000000018649      0x182 /tmp/ccceNeTU.debug.temp.o
 .debug_line    0x00000000000187cb      0x17e /tmp/ccW9ed8S.debug.temp.o
 .debug_line    0x0000000000018949      0x17e /tmp/ccm31qhR.debug.temp.o
 .debug_line    0x0000000000018ac7      0x182 /tmp/ccJJN2YR.debug.temp.o
 .debug_line    0x0000000000018c49      0x181 /tmp/ccJmC5ST.debug.temp.o
 .debug_line    0x0000000000018dca      0x19d /tmp/ccOuQ4KT.debug.temp.o
 .debug_line    0x0000000000018f67      0x1bb /tmp/ccM2xJwU.debug.temp.o
 .debug_line    0x0000000000019122      0x24d /tmp/cczy6ObT.debug.temp.o
 .debug_line    0x000000000001936f      0x373 /tmp/ccFcJpRR.debug.temp.o
 .debug_line    0x00000000000196e2      0x37b /tmp/ccXG1aHR.debug.temp.o
 .debug_line    0x0000000000019a5d      0x32f /tmp/ccsmktNQ.debug.temp.o
 .debug_line    0x0000000000019d8c      0x3b7 /tmp/ccjGG10Q.debug.temp.o
 .debug_line    0x000000000001a143      0x3b5 /tmp/ccEM87ZS.debug.temp.o
 .debug_line    0x000000000001a4f8      0x42b /tmp/ccPo6V8U.debug.temp.o
 .debug_line    0x000000000001a923      0x395 /tmp/ccBpDpES.debug.temp.o
 .debug_line    0x000000000001acb8      0x3b8 /tmp/ccrdz0RS.debug.temp.o
 .debug_line    0x000000000001b070      0x40c /tmp/ccekzuFS.debug.temp.o
 .debug_line    0x000000000001b47c      0x450 /tmp/ccYslnBT.debug.temp.o
 .debug_line    0x000000000001b8cc      0x47d /tmp/cc0LOACS.debug.temp.o
 .debug_line    0x000000000001bd49      0x56a /tmp/ccEskqoR.debug.temp.o
 .debug_line    0x000000000001c2b3      0x54d /tmp/ccHeV3DT.debug.temp.o
 .debug_line    0x000000000001c800      0x54f /tmp/cc2mNBZT.debug.temp.o
 .debug_line    0x000000000001cd4f      0x47d /tmp/ccS0JqQT.debug.temp.o
 .debug_line    0x000000000001d1cc      0x527 /tmp/cc8peQEQ.debug.temp.o
 .debug_line    0x000000000001d6f3      0x5cd /tmp/ccyMiI0S.debug.temp.o
 .debug_line    0x000000000001dcc0      0x665 /tmp/cc2WlFER.debug.temp.o
 .debug_line    0x000000000001e325      0x64a /tmp/ccLojDwR.debug.temp.o
 .debug_line    0x000000000001e96f      0x627 /tmp/ccbgtkuR.debug.temp.o
 .debug_line    0x000000000001ef96      0x58e /tmp/ccw2XMyR.debug.temp.o
 .debug_line    0x000000000001f524      0x5c1 /tmp/ccScQ5TT.debug.temp.o
 .debug_line    0x000000000001fae5      0x5c3 /tmp/cck1YTvR.debug.temp.o
 .debug_line    0x00000000000200a8      0x5b3 /tmp/ccpMjIOQ.debug.temp.o
 .debug_line    0x000000000002065b      0x2c7 /tmp/ccv4Zh4S.debug.temp.o
 .debug_line    0x0000000000020922      0x2cf /tmp/ccJEni1T.debug.temp.o
 .debug_line    0x0000000000020bf1      0x52d /tmp/ccCsTHgT.debug.temp.o
 .debug_line    0x000000000002111e      0x2d0 /tmp/ccV91cCT.debug.temp.o
 .debug_line    0x00000000000213ee      0x2d9 /tmp/cc2HUEyU.debug.temp.o
 .debug_line    0x00000000000216c7      0x63c /tmp/cce1JztT.debug.temp.o
 .debug_line    0x0000000000021d03      0x2ca /tmp/ccrFTh4U.debug.temp.o
 .debug_line    0x0000000000021fcd      0x2d1 /tmp/ccInoOOQ.debug.temp.o
 .debug_line    0x000000000002229e      0x6ec /tmp/cc2chVAS.debug.temp.o
 .debug_line    0x000000000002298a      0x70b /tmp/ccO4li8S.debug.temp.o
 .debug_line    0x0000000000023095      0x6e2 /tmp/ccSZCavR.debug.temp.o
 .debug_line    0x0000000000023777      0x6d9 /tmp/ccewbZ9R.debug.temp.o
 .debug_line    0x0000000000023e50      0x6e7 /tmp/ccetwARS.debug.temp.o
 .debug_line    0x0000000000024537      0x6df /tmp/ccAREOzT.debug.temp.o
 .debug_line    0x0000000000024c16      0x6cc /tmp/ccpEIRxU.debug.temp.o
 .debug_line    0x00000000000252e2      0x3c2 /tmp/ccTCICPS.debug.temp.o
 .debug_line    0x00000000000256a4      0x71f /tmp/ccqutFuR.debug.temp.o
 .debug_line    0x0000000000025dc3      0x2eb /tmp/ccIYQUNR.debug.temp.o
 .debug_line    0x00000000000260ae      0x2fa /tmp/ccTw1qWQ.debug.temp.o
 .debug_line    0x00000000000263a8      0x1aa /tmp/ccAwWaIQ.debug.temp.o
 .debug_line    0x0000000000026552      0x1ad /tmp/ccjRYKcR.debug.temp.o
 .debug_line    0x00000000000266ff      0x1ab /tmp/ccPe9rXU.debug.temp.o
 .debug_line    0x00000000000268aa      0x1a9 /tmp/cca5TRcU.debug.temp.o
 .debug_line    0x0000000000026a53      0x1af /tmp/ccKnqrhT.debug.temp.o
 .debug_line    0x0000000000026c02      0x1ae /tmp/ccb82HeS.debug.temp.o
 .debug_line    0x0000000000026db0      0x18a /tmp/ccMkDz1R.debug.temp.o
 .debug_line    0x0000000000026f3a      0x182 /tmp/cc9Q5zIU.debug.temp.o
 .debug_line    0x00000000000270bc      0x185 /tmp/ccPjCGAU.debug.temp.o
 .debug_line    0x0000000000027241      0x1cf /tmp/cc9cQLlR.debug.temp.o
 .debug_line    0x0000000000027410      0x3b3 /tmp/ccpY3HmT.debug.temp.o
 .debug_line    0x00000000000277c3      0x3ec /tmp/ccPgV1IS.debug.temp.o
 .debug_line    0x0000000000027baf      0x38c /tmp/ccAZHEoS.debug.temp.o
 .debug_line    0x0000000000027f3b      0x4db /tmp/ccWXLb3R.debug.temp.o
 .debug_line    0x0000000000028416      0x3d6 /tmp/ccvl1Y7U.debug.temp.o
 .debug_line    0x00000000000287ec      0x201 /tmp/ccUGi1pS.debug.temp.o
 .debug_line    0x00000000000289ed      0x17f /tmp/ccaWLOnS.debug.temp.o

.debug_str      0x0000000000000000    0x134dc
 .debug_str     0x0000000000000000      0x679 /tmp/UiApp.dll.XMj2sU.ltrans0.ltrans.o
                                        0x680 (size before relaxing)
 .debug_str     0x0000000000000679      0x1bf /tmp/UiApp.dll.XMj2sU.ltrans1.ltrans.o
                                        0x5d4 (size before relaxing)
 .debug_str     0x0000000000000838       0xf6 /tmp/UiApp.dll.XMj2sU.ltrans2.ltrans.o
                                        0x61b (size before relaxing)
 .debug_str     0x000000000000092e      0x445 /tmp/ccXLiP8S.debug.temp.o
                                        0x4b4 (size before relaxing)
 .debug_str     0x0000000000000d73       0x5a /tmp/ccHI6sZU.debug.temp.o
                                        0x4a8 (size before relaxing)
 .debug_str     0x0000000000000dcd     0x134e /tmp/ccbZWGAS.debug.temp.o
                                       0x16e5 (size before relaxing)
 .debug_str     0x000000000000211b      0x13d /tmp/ccjj85FU.debug.temp.o
                                        0x515 (size before relaxing)
 .debug_str     0x0000000000002258     0x1251 /tmp/ccvZjDvR.debug.temp.o
                                       0x28e6 (size before relaxing)
 .debug_str     0x00000000000034a9     0x1a7d /tmp/ccdkOiRQ.debug.temp.o
                                       0x4094 (size before relaxing)
 .debug_str     0x0000000000004f26      0x151 /tmp/ccgCqmwU.debug.temp.o
                                       0x2fc7 (size before relaxing)
 .debug_str     0x0000000000005077       0xc5 /tmp/ccPsHtGU.debug.temp.o
                                       0x30fa (size before relaxing)
 .debug_str     0x000000000000513c      0x27f /tmp/ccS6TKZU.debug.temp.o
                                       0x31ab (size before relaxing)
 .debug_str     0x00000000000053bb       0x99 /tmp/cc66O6fR.debug.temp.o
                                       0x1138 (size before relaxing)
 .debug_str     0x0000000000005454      0xa48 /tmp/ccXlCKRU.debug.temp.o
                                       0x2330 (size before relaxing)
 .debug_str     0x0000000000005e9c      0x139 /tmp/ccaPmWDQ.debug.temp.o
                                        0x513 (size before relaxing)
 .debug_str     0x0000000000005fd5       0x76 /tmp/cccZLibS.debug.temp.o
                                        0x4d6 (size before relaxing)
 .debug_str     0x000000000000604b       0xcc /tmp/ccWZsIWU.debug.temp.o
                                        0x59e (size before relaxing)
 .debug_str     0x0000000000006117       0x54 /tmp/ccm2PzcV.debug.temp.o
                                        0x59a (size before relaxing)
 .debug_str     0x000000000000616b      0x2c6 /tmp/ccceNeTU.debug.temp.o
                                        0x959 (size before relaxing)
 .debug_str     0x0000000000006431      0x31a /tmp/ccW9ed8S.debug.temp.o
                                        0x97b (size before relaxing)
 .debug_str     0x000000000000674b      0x1b5 /tmp/ccm31qhR.debug.temp.o
                                        0x718 (size before relaxing)
 .debug_str     0x0000000000006900       0x47 /tmp/ccJJN2YR.debug.temp.o
                                        0x5ab (size before relaxing)
 .debug_str     0x0000000000006947       0x46 /tmp/ccJmC5ST.debug.temp.o
                                        0x59e (size before relaxing)
 .debug_str     0x000000000000698d      0x2b6 /tmp/ccOuQ4KT.debug.temp.o
                                        0x730 (size before relaxing)
 .debug_str     0x0000000000006c43      0x23a /tmp/ccM2xJwU.debug.temp.o
                                        0x864 (size before relaxing)
 .debug_str     0x0000000000006e7d      0x1ce /tmp/cczy6ObT.debug.temp.o
                                        0x709 (size before relaxing)
 .debug_str     0x000000000000704b      0x31f /tmp/ccFcJpRR.debug.temp.o
                                       0x193f (size before relaxing)
 .debug_str     0x000000000000736a      0x12a /tmp/ccXG1aHR.debug.temp.o
                                       0x16d3 (size before relaxing)
 .debug_str     0x0000000000007494      0x139 /tmp/ccsmktNQ.debug.temp.o
                                       0x16d5 (size before relaxing)
 .debug_str     0x00000000000075cd      0x3c1 /tmp/ccjGG10Q.debug.temp.o
                                       0x1b08 (size before relaxing)
 .debug_str     0x000000000000798e       0xc1 /tmp/ccEM87ZS.debug.temp.o
                                       0x193e (size before relaxing)
 .debug_str     0x0000000000007a4f      0xdbb /tmp/ccPo6V8U.debug.temp.o
                                       0x2752 (size before relaxing)
 .debug_str     0x000000000000880a      0x255 /tmp/ccBpDpES.debug.temp.o
                                       0x1ba0 (size before relaxing)
 .debug_str     0x0000000000008a5f      0x5f5 /tmp/ccrdz0RS.debug.temp.o
                                       0x2209 (size before relaxing)
 .debug_str     0x0000000000009054      0x5ee /tmp/ccekzuFS.debug.temp.o
                                       0x1d79 (size before relaxing)
 .debug_str     0x0000000000009642      0x118 /tmp/ccYslnBT.debug.temp.o
                                       0x2330 (size before relaxing)
 .debug_str     0x000000000000975a      0x667 /tmp/cc0LOACS.debug.temp.o
                                       0x1d9a (size before relaxing)
 .debug_str     0x0000000000009dc1      0xd92 /tmp/ccEskqoR.debug.temp.o
                                       0x3722 (size before relaxing)
 .debug_str     0x000000000000ab53       0xac /tmp/ccHeV3DT.debug.temp.o
                                       0x256a (size before relaxing)
 .debug_str     0x000000000000abff       0x8e /tmp/cc2mNBZT.debug.temp.o
                                       0x24fb (size before relaxing)
 .debug_str     0x000000000000ac8d      0x3ea /tmp/ccS0JqQT.debug.temp.o
                                       0x1b78 (size before relaxing)
 .debug_str     0x000000000000b077      0x78d /tmp/cc8peQEQ.debug.temp.o
                                       0x2936 (size before relaxing)
 .debug_str     0x000000000000b804      0x3fa /tmp/ccyMiI0S.debug.temp.o
                                       0x2cb9 (size before relaxing)
 .debug_str     0x000000000000bbfe      0xf0e /tmp/cc2WlFER.debug.temp.o
                                       0x367c (size before relaxing)
 .debug_str     0x000000000000cb0c      0xd56 /tmp/ccLojDwR.debug.temp.o
                                       0x440f (size before relaxing)
 .debug_str     0x000000000000d862      0x8ca /tmp/ccbgtkuR.debug.temp.o
                                       0x2e68 (size before relaxing)
 .debug_str     0x000000000000e12c      0x5f3 /tmp/ccw2XMyR.debug.temp.o
                                       0x2b6f (size before relaxing)
 .debug_str     0x000000000000e71f      0x42f /tmp/ccScQ5TT.debug.temp.o
                                       0x290c (size before relaxing)
 .debug_str     0x000000000000eb4e      0x27f /tmp/cck1YTvR.debug.temp.o
                                       0x2641 (size before relaxing)
 .debug_str     0x000000000000edcd      0x716 /tmp/ccpMjIOQ.debug.temp.o
                                       0x2682 (size before relaxing)
 .debug_str     0x000000000000f4e3       0xa4 /tmp/ccv4Zh4S.debug.temp.o
                                        0x72c (size before relaxing)
 .debug_str     0x000000000000f587       0xac /tmp/ccJEni1T.debug.temp.o
                                        0x747 (size before relaxing)
 .debug_str     0x000000000000f633      0x3d8 /tmp/ccCsTHgT.debug.temp.o
                                       0x2b27 (size before relaxing)
 .debug_str     0x000000000000fa0b       0xaa /tmp/ccV91cCT.debug.temp.o
                                        0x6ed (size before relaxing)
 .debug_str     0x000000000000fab5       0xb3 /tmp/cc2HUEyU.debug.temp.o
                                        0x70a (size before relaxing)
 .debug_str     0x000000000000fb68      0x556 /tmp/cce1JztT.debug.temp.o
                                       0x2a45 (size before relaxing)
 .debug_str     0x00000000000100be       0xa6 /tmp/ccrFTh4U.debug.temp.o
                                        0x9ee (size before relaxing)
 .debug_str     0x0000000000010164       0xad /tmp/ccInoOOQ.debug.temp.o
                                        0xa07 (size before relaxing)
 .debug_str     0x0000000000010211      0xadc /tmp/cc2chVAS.debug.temp.o
                                       0x3c6b (size before relaxing)
 .debug_str     0x0000000000010ced      0x2cb /tmp/ccO4li8S.debug.temp.o
                                       0x3ccd (size before relaxing)
 .debug_str     0x0000000000010fb8      0x479 /tmp/ccSZCavR.debug.temp.o
                                       0x3ba6 (size before relaxing)
 .debug_str     0x0000000000011431       0x5b /tmp/ccewbZ9R.debug.temp.o
                                       0x3632 (size before relaxing)
 .debug_str     0x000000000001148c      0x1c3 /tmp/ccetwARS.debug.temp.o
                                       0x398e (size before relaxing)
 .debug_str     0x000000000001164f      0x1df /tmp/ccAREOzT.debug.temp.o
                                       0x38be (size before relaxing)
 .debug_str     0x000000000001182e       0xa1 /tmp/ccpEIRxU.debug.temp.o
                                       0x3621 (size before relaxing)
 .debug_str     0x00000000000118cf       0xa1 /tmp/ccTCICPS.debug.temp.o
                                        0xc7a (size before relaxing)
 .debug_str     0x0000000000011970      0x175 /tmp/ccqutFuR.debug.temp.o
                                       0x3876 (size before relaxing)
 .debug_str     0x0000000000011ae5       0xbc /tmp/ccIYQUNR.debug.temp.o
                                        0xac3 (size before relaxing)
 .debug_str     0x0000000000011ba1       0xcb /tmp/ccTw1qWQ.debug.temp.o
                                        0xaec (size before relaxing)
 .debug_str     0x0000000000011c6c       0x57 /tmp/ccAwWaIQ.debug.temp.o
                                        0x4be (size before relaxing)
 .debug_str     0x0000000000011cc3       0x5a /tmp/ccjRYKcR.debug.temp.o
                                        0x4e7 (size before relaxing)
 .debug_str     0x0000000000011d1d       0x58 /tmp/ccPe9rXU.debug.temp.o
                                        0x4c6 (size before relaxing)
 .debug_str     0x0000000000011d75       0x5e /tmp/cca5TRcU.debug.temp.o
                                        0x4ca (size before relaxing)
 .debug_str     0x0000000000011dd3       0x5c /tmp/ccKnqrhT.debug.temp.o
                                        0x4c8 (size before relaxing)
 .debug_str     0x0000000000011e2f       0xbd /tmp/ccb82HeS.debug.temp.o
                                        0x530 (size before relaxing)
 .debug_str     0x0000000000011eec       0x62 /tmp/ccMkDz1R.debug.temp.o
                                        0x5b7 (size before relaxing)
 .debug_str     0x0000000000011f4e      0x11f /tmp/cc9Q5zIU.debug.temp.o
                                        0x6aa (size before relaxing)
 .debug_str     0x000000000001206d       0xe3 /tmp/ccPjCGAU.debug.temp.o
                                        0x641 (size before relaxing)
 .debug_str     0x0000000000012150      0x142 /tmp/cc9cQLlR.debug.temp.o
                                        0x546 (size before relaxing)
 .debug_str     0x0000000000012292      0x3f6 /tmp/ccpY3HmT.debug.temp.o
                                        0xbf8 (size before relaxing)
 .debug_str     0x0000000000012688      0x267 /tmp/ccPgV1IS.debug.temp.o
                                       0x22c9 (size before relaxing)
 .debug_str     0x00000000000128ef      0x164 /tmp/ccAZHEoS.debug.temp.o
                                       0x1bd5 (size before relaxing)
 .debug_str     0x0000000000012a53      0x410 /tmp/ccWXLb3R.debug.temp.o
                                       0x2079 (size before relaxing)
 .debug_str     0x0000000000012e63      0x31b /tmp/ccvl1Y7U.debug.temp.o
                                       0x19eb (size before relaxing)
 .debug_str     0x000000000001317e      0x208 /tmp/ccUGi1pS.debug.temp.o
                                        0x610 (size before relaxing)
 .debug_str     0x0000000000013386      0x156 /tmp/ccaWLOnS.debug.temp.o
                                        0x52c (size before relaxing)

.debug_frame    0x0000000000000000     0x3e00
 .debug_frame   0x0000000000000000     0x1570 /tmp/UiApp.dll.XMj2sU.ltrans0.ltrans.o
 .debug_frame   0x0000000000001570      0xff8 /tmp/UiApp.dll.XMj2sU.ltrans1.ltrans.o
 .debug_frame   0x0000000000002568     0x1898 /tmp/UiApp.dll.XMj2sU.ltrans2.ltrans.o
